GAS LISTING /var/folders/v8/5w7qrjpd37x60gtz_mwnrxpr0000gn/T//ccbFIL6A.s 			page 1


   1              		.file	"adc.c"
   2              		.option nopic
   3              		.attribute arch, "rv32i2p0_m2p0_a2p0_c2p0"
   4              		.attribute unaligned_access, 0
   5              		.attribute stack_align, 16
   6              		.text
   7              	.Ltext0:
   8              		.cfi_sections	.debug_frame
   9              		.section	.text.ADC3powerUpInit,"ax",@progbits
  10              		.align	1
  11              		.globl	ADC3powerUpInit
  13              	ADC3powerUpInit:
  14              	.LFB2:
  15              		.file 1 "adc.c"
   1:adc.c         **** #include "adc.h"
   2:adc.c         **** #include "gd32vf103.h"
   3:adc.c         **** 
   4:adc.c         **** void ADC3powerUpInit(void) {
  16              		.loc 1 4 28
  17              		.cfi_startproc
   5:adc.c         ****     rcu_periph_clock_enable(RCU_GPIOB);
  18              		.loc 1 5 5
   4:adc.c         ****     rcu_periph_clock_enable(RCU_GPIOB);
  19              		.loc 1 4 28 is_stmt 0
  20 0000 4111     		addi	sp,sp,-16
  21              	.LCFI0:
  22              		.cfi_def_cfa_offset 16
  23              		.loc 1 5 5
  24 0002 13053060 		li	a0,1539
   4:adc.c         ****     rcu_periph_clock_enable(RCU_GPIOB);
  25              		.loc 1 4 28
  26 0006 06C6     		sw	ra,12(sp)
  27 0008 22C4     		sw	s0,8(sp)
  28              		.cfi_offset 1, -4
  29              		.cfi_offset 8, -8
  30              		.loc 1 5 5
  31 000a 97000000 		call	rcu_periph_clock_enable
  31      E7800000 
  32              	.LVL0:
   6:adc.c         ****     rcu_periph_clock_enable(RCU_ADC0);
  33              		.loc 1 6 5 is_stmt 1
  34 0012 13059060 		li	a0,1545
  35 0016 97000000 		call	rcu_periph_clock_enable
  35      E7800000 
  36              	.LVL1:
   7:adc.c         ****     rcu_adc_clock_config(RCU_CKADC_CKAPB2_DIV8);
  37              		.loc 1 7 5
  38 001e 0D45     		li	a0,3
  39 0020 97000000 		call	rcu_adc_clock_config
  39      E7800000 
  40              	.LVL2:
   8:adc.c         **** 
   9:adc.c         ****     gpio_init(GPIOB, GPIO_MODE_AIN, GPIO_MODE_OUT_PP, GPIO_PIN_0);
  41              		.loc 1 9 5
  42 0028 37150140 		li	a0,1073811456
  43 002c 8546     		li	a3,1
  44 002e 4146     		li	a2,16
GAS LISTING /var/folders/v8/5w7qrjpd37x60gtz_mwnrxpr0000gn/T//ccbFIL6A.s 			page 2


  45 0030 8145     		li	a1,0
  46 0032 130505C0 		addi	a0,a0,-1024
  10:adc.c         **** 
  11:adc.c         ****     adc_deinit(ADC0);                                                   // Reset...
  47              		.loc 1 11 5 is_stmt 0
  48 0036 37240140 		li	s0,1073815552
   9:adc.c         **** 
  49              		.loc 1 9 5
  50 003a 97000000 		call	gpio_init
  50      E7800000 
  51              	.LVL3:
  52              		.loc 1 11 5 is_stmt 1
  53 0042 13050440 		addi	a0,s0,1024
  54 0046 97000000 		call	adc_deinit
  54      E7800000 
  55              	.LVL4:
  12:adc.c         ****     adc_mode_config(ADC_MODE_FREE);                                     // ADC0 & ADC1 runs indep.
  56              		.loc 1 12 5
  57 004e 0145     		li	a0,0
  58 0050 97000000 		call	adc_mode_config
  58      E7800000 
  59              	.LVL5:
  13:adc.c         ****     adc_special_function_config(ADC0, ADC_CONTINUOUS_MODE, DISABLE);    // Trigger each sample
  60              		.loc 1 13 5
  61 0058 13050440 		addi	a0,s0,1024
  62 005c 0146     		li	a2,0
  63 005e 8945     		li	a1,2
  64 0060 97000000 		call	adc_special_function_config
  64      E7800000 
  65              	.LVL6:
  14:adc.c         ****     adc_special_function_config(ADC0, ADC_SCAN_MODE, DISABLE);          // Scan mode disable
  66              		.loc 1 14 5
  67 0068 0146     		li	a2,0
  68 006a 13050440 		addi	a0,s0,1024
  69 006e 93050010 		li	a1,256
  70 0072 97000000 		call	adc_special_function_config
  70      E7800000 
  71              	.LVL7:
  15:adc.c         ****     adc_data_alignment_config(ADC0, ADC_DATAALIGN_RIGHT);               // Align ADC value right
  72              		.loc 1 15 5
  73 007a 13050440 		addi	a0,s0,1024
  74 007e 8145     		li	a1,0
  75 0080 97000000 		call	adc_data_alignment_config
  75      E7800000 
  76              	.LVL8:
  16:adc.c         ****     adc_channel_length_config(ADC0, ADC_REGULAR_CHANNEL, 1);            // Convert one channel
  77              		.loc 1 16 5
  78 0088 13050440 		addi	a0,s0,1024
  79 008c 0546     		li	a2,1
  80 008e 8545     		li	a1,1
  81 0090 97000000 		call	adc_channel_length_config
  81      E7800000 
  82              	.LVL9:
  17:adc.c         **** 
  18:adc.c         ****     adc_regular_channel_config(ADC0, 0, ADC_CHANNEL_8, ADC_SAMPLETIME_13POINT5);                // 
  83              		.loc 1 18 5
  84 0098 8946     		li	a3,2
GAS LISTING /var/folders/v8/5w7qrjpd37x60gtz_mwnrxpr0000gn/T//ccbFIL6A.s 			page 3


  85 009a 13050440 		addi	a0,s0,1024
  86 009e 2146     		li	a2,8
  87 00a0 8145     		li	a1,0
  88 00a2 97000000 		call	adc_regular_channel_config
  88      E7800000 
  89              	.LVL10:
  19:adc.c         ****     adc_external_trigger_source_config(ADC0, ADC_REGULAR_CHANNEL, ADC0_1_EXTTRIG_REGULAR_NONE);    
  90              		.loc 1 19 5
  91 00aa 13050440 		addi	a0,s0,1024
  92 00ae 37060E00 		li	a2,917504
  93 00b2 8545     		li	a1,1
  94 00b4 97000000 		call	adc_external_trigger_source_config
  94      E7800000 
  95              	.LVL11:
  20:adc.c         ****     adc_external_trigger_config(ADC0, ADC_REGULAR_CHANNEL, ENABLE);     // Enable trigger
  96              		.loc 1 20 5
  97 00bc 8545     		li	a1,1
  98 00be 0546     		li	a2,1
  99 00c0 13050440 		addi	a0,s0,1024
 100 00c4 97000000 		call	adc_external_trigger_config
 100      E7800000 
 101              	.LVL12:
  21:adc.c         **** 
  22:adc.c         **** 
  23:adc.c         **** 
  24:adc.c         ****     adc_enable(ADC0);                                                   // ...enable!...
 102              		.loc 1 24 5
 103 00cc 13050440 		addi	a0,s0,1024
 104 00d0 97000000 		call	adc_enable
 104      E7800000 
 105              	.LVL13:
  25:adc.c         ****     //delay_1ms(1);
  26:adc.c         ****     for (int i=0; i<0xFFFF; i++);                                       // ...wait 1ms...
 106              		.loc 1 26 5
 107              		.loc 1 26 10
  27:adc.c         ****     adc_calibration_enable(ADC0);                                       // ...calibrate...
 108              		.loc 1 27 5
 109 00d8 13050440 		addi	a0,s0,1024
 110 00dc 97000000 		call	adc_calibration_enable
 110      E7800000 
 111              	.LVL14:
  28:adc.c         ****     //delay_1ms(1);                                                     // ...wait 1ms...
  29:adc.c         ****     for (int i=0; i<0xFFFF; i++);
 112              		.loc 1 29 5
 113              		.loc 1 29 10
  30:adc.c         ****     adc_software_trigger_enable(ADC0, ADC_REGULAR_CHANNEL);             // ...trigger 1:st conv!
 114              		.loc 1 30 5
 115 00e4 13050440 		addi	a0,s0,1024
  31:adc.c         **** }...
 116              		.loc 1 31 1 is_stmt 0
 117 00e8 2244     		lw	s0,8(sp)
 118              		.cfi_restore 8
 119 00ea B240     		lw	ra,12(sp)
 120              		.cfi_restore 1
  30:adc.c         ****     adc_software_trigger_enable(ADC0, ADC_REGULAR_CHANNEL);             // ...trigger 1:st conv!
 121              		.loc 1 30 5
 122 00ec 8545     		li	a1,1
GAS LISTING /var/folders/v8/5w7qrjpd37x60gtz_mwnrxpr0000gn/T//ccbFIL6A.s 			page 4


 123              		.loc 1 31 1
 124 00ee 4101     		addi	sp,sp,16
 125              	.LCFI1:
 126              		.cfi_def_cfa_offset 0
  30:adc.c         ****     adc_software_trigger_enable(ADC0, ADC_REGULAR_CHANNEL);             // ...trigger 1:st conv!
 127              		.loc 1 30 5
 128 00f0 17030000 		tail	adc_software_trigger_enable
 128      67000300 
 129              	.LVL15:
 130              		.cfi_endproc
 131              	.LFE2:
 133              		.text
 134              	.Letext0:
 135              		.file 2 "/Users/gulda/Desktop/toolchain-gd32v-osx/compiler/riscv64-unknown-elf/include/machine/_de
 136              		.file 3 "/Users/gulda/Desktop/toolchain-gd32v-osx/compiler/riscv64-unknown-elf/include/sys/_stdint
 137              		.file 4 "../../firmware/GD32VF103_standard_peripheral/gd32vf103.h"
 138              		.file 5 "../../firmware/GD32VF103_standard_peripheral/Include/gd32vf103_rcu.h"
 139              		.file 6 "../../firmware/GD32VF103_standard_peripheral/Include/gd32vf103_gpio.h"
 140              		.file 7 "../../firmware/GD32VF103_standard_peripheral/Include/gd32vf103_adc.h"
 141              		.file 8 "../../firmware/GD32VF103_standard_peripheral/system_gd32vf103.h"
GAS LISTING /var/folders/v8/5w7qrjpd37x60gtz_mwnrxpr0000gn/T//ccbFIL6A.s 			page 5


DEFINED SYMBOLS
                            *ABS*:0000000000000000 adc.c
/var/folders/v8/5w7qrjpd37x60gtz_mwnrxpr0000gn/T//ccbFIL6A.s:13     .text.ADC3powerUpInit:0000000000000000 ADC3powerUpInit
/var/folders/v8/5w7qrjpd37x60gtz_mwnrxpr0000gn/T//ccbFIL6A.s:17     .text.ADC3powerUpInit:0000000000000000 .L0 
/var/folders/v8/5w7qrjpd37x60gtz_mwnrxpr0000gn/T//ccbFIL6A.s:18     .text.ADC3powerUpInit:0000000000000000 .L0 
/var/folders/v8/5w7qrjpd37x60gtz_mwnrxpr0000gn/T//ccbFIL6A.s:19     .text.ADC3powerUpInit:0000000000000000 .L0 
/var/folders/v8/5w7qrjpd37x60gtz_mwnrxpr0000gn/T//ccbFIL6A.s:20     .text.ADC3powerUpInit:0000000000000000 .L0 
/var/folders/v8/5w7qrjpd37x60gtz_mwnrxpr0000gn/T//ccbFIL6A.s:22     .text.ADC3powerUpInit:0000000000000002 .L0 
/var/folders/v8/5w7qrjpd37x60gtz_mwnrxpr0000gn/T//ccbFIL6A.s:24     .text.ADC3powerUpInit:0000000000000002 .L0 
/var/folders/v8/5w7qrjpd37x60gtz_mwnrxpr0000gn/T//ccbFIL6A.s:26     .text.ADC3powerUpInit:0000000000000006 .L0 
/var/folders/v8/5w7qrjpd37x60gtz_mwnrxpr0000gn/T//ccbFIL6A.s:28     .text.ADC3powerUpInit:000000000000000a .L0 
/var/folders/v8/5w7qrjpd37x60gtz_mwnrxpr0000gn/T//ccbFIL6A.s:29     .text.ADC3powerUpInit:000000000000000a .L0 
/var/folders/v8/5w7qrjpd37x60gtz_mwnrxpr0000gn/T//ccbFIL6A.s:31     .text.ADC3powerUpInit:000000000000000a .L0 
/var/folders/v8/5w7qrjpd37x60gtz_mwnrxpr0000gn/T//ccbFIL6A.s:34     .text.ADC3powerUpInit:0000000000000012 .L0 
/var/folders/v8/5w7qrjpd37x60gtz_mwnrxpr0000gn/T//ccbFIL6A.s:38     .text.ADC3powerUpInit:000000000000001e .L0 
/var/folders/v8/5w7qrjpd37x60gtz_mwnrxpr0000gn/T//ccbFIL6A.s:42     .text.ADC3powerUpInit:0000000000000028 .L0 
/var/folders/v8/5w7qrjpd37x60gtz_mwnrxpr0000gn/T//ccbFIL6A.s:48     .text.ADC3powerUpInit:0000000000000036 .L0 
/var/folders/v8/5w7qrjpd37x60gtz_mwnrxpr0000gn/T//ccbFIL6A.s:50     .text.ADC3powerUpInit:000000000000003a .L0 
/var/folders/v8/5w7qrjpd37x60gtz_mwnrxpr0000gn/T//ccbFIL6A.s:53     .text.ADC3powerUpInit:0000000000000042 .L0 
/var/folders/v8/5w7qrjpd37x60gtz_mwnrxpr0000gn/T//ccbFIL6A.s:57     .text.ADC3powerUpInit:000000000000004e .L0 
/var/folders/v8/5w7qrjpd37x60gtz_mwnrxpr0000gn/T//ccbFIL6A.s:61     .text.ADC3powerUpInit:0000000000000058 .L0 
/var/folders/v8/5w7qrjpd37x60gtz_mwnrxpr0000gn/T//ccbFIL6A.s:67     .text.ADC3powerUpInit:0000000000000068 .L0 
/var/folders/v8/5w7qrjpd37x60gtz_mwnrxpr0000gn/T//ccbFIL6A.s:73     .text.ADC3powerUpInit:000000000000007a .L0 
/var/folders/v8/5w7qrjpd37x60gtz_mwnrxpr0000gn/T//ccbFIL6A.s:78     .text.ADC3powerUpInit:0000000000000088 .L0 
/var/folders/v8/5w7qrjpd37x60gtz_mwnrxpr0000gn/T//ccbFIL6A.s:84     .text.ADC3powerUpInit:0000000000000098 .L0 
/var/folders/v8/5w7qrjpd37x60gtz_mwnrxpr0000gn/T//ccbFIL6A.s:91     .text.ADC3powerUpInit:00000000000000aa .L0 
/var/folders/v8/5w7qrjpd37x60gtz_mwnrxpr0000gn/T//ccbFIL6A.s:97     .text.ADC3powerUpInit:00000000000000bc .L0 
/var/folders/v8/5w7qrjpd37x60gtz_mwnrxpr0000gn/T//ccbFIL6A.s:103    .text.ADC3powerUpInit:00000000000000cc .L0 
/var/folders/v8/5w7qrjpd37x60gtz_mwnrxpr0000gn/T//ccbFIL6A.s:107    .text.ADC3powerUpInit:00000000000000d8 .L0 
/var/folders/v8/5w7qrjpd37x60gtz_mwnrxpr0000gn/T//ccbFIL6A.s:108    .text.ADC3powerUpInit:00000000000000d8 .L0 
/var/folders/v8/5w7qrjpd37x60gtz_mwnrxpr0000gn/T//ccbFIL6A.s:109    .text.ADC3powerUpInit:00000000000000d8 .L0 
/var/folders/v8/5w7qrjpd37x60gtz_mwnrxpr0000gn/T//ccbFIL6A.s:113    .text.ADC3powerUpInit:00000000000000e4 .L0 
/var/folders/v8/5w7qrjpd37x60gtz_mwnrxpr0000gn/T//ccbFIL6A.s:114    .text.ADC3powerUpInit:00000000000000e4 .L0 
/var/folders/v8/5w7qrjpd37x60gtz_mwnrxpr0000gn/T//ccbFIL6A.s:115    .text.ADC3powerUpInit:00000000000000e4 .L0 
/var/folders/v8/5w7qrjpd37x60gtz_mwnrxpr0000gn/T//ccbFIL6A.s:117    .text.ADC3powerUpInit:00000000000000e8 .L0 
/var/folders/v8/5w7qrjpd37x60gtz_mwnrxpr0000gn/T//ccbFIL6A.s:118    .text.ADC3powerUpInit:00000000000000ea .L0 
/var/folders/v8/5w7qrjpd37x60gtz_mwnrxpr0000gn/T//ccbFIL6A.s:120    .text.ADC3powerUpInit:00000000000000ec .L0 
/var/folders/v8/5w7qrjpd37x60gtz_mwnrxpr0000gn/T//ccbFIL6A.s:122    .text.ADC3powerUpInit:00000000000000ec .L0 
/var/folders/v8/5w7qrjpd37x60gtz_mwnrxpr0000gn/T//ccbFIL6A.s:124    .text.ADC3powerUpInit:00000000000000ee .L0 
/var/folders/v8/5w7qrjpd37x60gtz_mwnrxpr0000gn/T//ccbFIL6A.s:126    .text.ADC3powerUpInit:00000000000000f0 .L0 
/var/folders/v8/5w7qrjpd37x60gtz_mwnrxpr0000gn/T//ccbFIL6A.s:128    .text.ADC3powerUpInit:00000000000000f0 .L0 
/var/folders/v8/5w7qrjpd37x60gtz_mwnrxpr0000gn/T//ccbFIL6A.s:130    .text.ADC3powerUpInit:00000000000000f8 .L0 
/var/folders/v8/5w7qrjpd37x60gtz_mwnrxpr0000gn/T//ccbFIL6A.s:133    .text.ADC3powerUpInit:00000000000000f8 .L0 
                     .debug_frame:0000000000000000 .L0 
/var/folders/v8/5w7qrjpd37x60gtz_mwnrxpr0000gn/T//ccbFIL6A.s:780    .debug_abbrev:0000000000000000 .Ldebug_abbrev0
/var/folders/v8/5w7qrjpd37x60gtz_mwnrxpr0000gn/T//ccbFIL6A.s:1143   .debug_str:000000000000024e .LASF67
/var/folders/v8/5w7qrjpd37x60gtz_mwnrxpr0000gn/T//ccbFIL6A.s:1085   .debug_str:00000000000000fc .LASF68
/var/folders/v8/5w7qrjpd37x60gtz_mwnrxpr0000gn/T//ccbFIL6A.s:1055   .debug_str:0000000000000000 .LASF69
/var/folders/v8/5w7qrjpd37x60gtz_mwnrxpr0000gn/T//ccbFIL6A.s:1047   .debug_ranges:0000000000000000 .Ldebug_ranges0
/var/folders/v8/5w7qrjpd37x60gtz_mwnrxpr0000gn/T//ccbFIL6A.s:1053   .debug_line:0000000000000000 .Ldebug_line0
/var/folders/v8/5w7qrjpd37x60gtz_mwnrxpr0000gn/T//ccbFIL6A.s:1147   .debug_str:00000000000002d1 .LASF0
/var/folders/v8/5w7qrjpd37x60gtz_mwnrxpr0000gn/T//ccbFIL6A.s:1139   .debug_str:000000000000022b .LASF1
/var/folders/v8/5w7qrjpd37x60gtz_mwnrxpr0000gn/T//ccbFIL6A.s:1197   .debug_str:000000000000043a .LASF6
/var/folders/v8/5w7qrjpd37x60gtz_mwnrxpr0000gn/T//ccbFIL6A.s:1129   .debug_str:00000000000001ea .LASF2
/var/folders/v8/5w7qrjpd37x60gtz_mwnrxpr0000gn/T//ccbFIL6A.s:1087   .debug_str:0000000000000102 .LASF3
/var/folders/v8/5w7qrjpd37x60gtz_mwnrxpr0000gn/T//ccbFIL6A.s:1153   .debug_str:0000000000000300 .LASF4
/var/folders/v8/5w7qrjpd37x60gtz_mwnrxpr0000gn/T//ccbFIL6A.s:1105   .debug_str:000000000000016d .LASF5
GAS LISTING /var/folders/v8/5w7qrjpd37x60gtz_mwnrxpr0000gn/T//ccbFIL6A.s 			page 6


/var/folders/v8/5w7qrjpd37x60gtz_mwnrxpr0000gn/T//ccbFIL6A.s:1081   .debug_str:00000000000000e9 .LASF7
/var/folders/v8/5w7qrjpd37x60gtz_mwnrxpr0000gn/T//ccbFIL6A.s:1169   .debug_str:000000000000038c .LASF8
/var/folders/v8/5w7qrjpd37x60gtz_mwnrxpr0000gn/T//ccbFIL6A.s:1079   .debug_str:00000000000000db .LASF9
/var/folders/v8/5w7qrjpd37x60gtz_mwnrxpr0000gn/T//ccbFIL6A.s:1141   .debug_str:0000000000000237 .LASF10
/var/folders/v8/5w7qrjpd37x60gtz_mwnrxpr0000gn/T//ccbFIL6A.s:1089   .debug_str:000000000000010c .LASF11
/var/folders/v8/5w7qrjpd37x60gtz_mwnrxpr0000gn/T//ccbFIL6A.s:1145   .debug_str:00000000000002c8 .LASF12
/var/folders/v8/5w7qrjpd37x60gtz_mwnrxpr0000gn/T//ccbFIL6A.s:1057   .debug_str:0000000000000041 .LASF70
/var/folders/v8/5w7qrjpd37x60gtz_mwnrxpr0000gn/T//ccbFIL6A.s:1093   .debug_str:000000000000011d .LASF13
/var/folders/v8/5w7qrjpd37x60gtz_mwnrxpr0000gn/T//ccbFIL6A.s:1195   .debug_str:0000000000000433 .LASF14
/var/folders/v8/5w7qrjpd37x60gtz_mwnrxpr0000gn/T//ccbFIL6A.s:1091   .debug_str:0000000000000114 .LASF15
/var/folders/v8/5w7qrjpd37x60gtz_mwnrxpr0000gn/T//ccbFIL6A.s:1161   .debug_str:0000000000000341 .LASF16
/var/folders/v8/5w7qrjpd37x60gtz_mwnrxpr0000gn/T//ccbFIL6A.s:1193   .debug_str:000000000000042b .LASF17
/var/folders/v8/5w7qrjpd37x60gtz_mwnrxpr0000gn/T//ccbFIL6A.s:1191   .debug_str:0000000000000422 .LASF18
/var/folders/v8/5w7qrjpd37x60gtz_mwnrxpr0000gn/T//ccbFIL6A.s:1183   .debug_str:00000000000003ef .LASF19
/var/folders/v8/5w7qrjpd37x60gtz_mwnrxpr0000gn/T//ccbFIL6A.s:1115   .debug_str:000000000000019c .LASF20
/var/folders/v8/5w7qrjpd37x60gtz_mwnrxpr0000gn/T//ccbFIL6A.s:1117   .debug_str:00000000000001a7 .LASF21
/var/folders/v8/5w7qrjpd37x60gtz_mwnrxpr0000gn/T//ccbFIL6A.s:1119   .debug_str:00000000000001b2 .LASF22
/var/folders/v8/5w7qrjpd37x60gtz_mwnrxpr0000gn/T//ccbFIL6A.s:1121   .debug_str:00000000000001bd .LASF23
/var/folders/v8/5w7qrjpd37x60gtz_mwnrxpr0000gn/T//ccbFIL6A.s:1123   .debug_str:00000000000001c8 .LASF24
/var/folders/v8/5w7qrjpd37x60gtz_mwnrxpr0000gn/T//ccbFIL6A.s:1125   .debug_str:00000000000001d3 .LASF25
/var/folders/v8/5w7qrjpd37x60gtz_mwnrxpr0000gn/T//ccbFIL6A.s:1103   .debug_str:0000000000000163 .LASF26
/var/folders/v8/5w7qrjpd37x60gtz_mwnrxpr0000gn/T//ccbFIL6A.s:1109   .debug_str:000000000000017f .LASF27
/var/folders/v8/5w7qrjpd37x60gtz_mwnrxpr0000gn/T//ccbFIL6A.s:1111   .debug_str:0000000000000188 .LASF28
/var/folders/v8/5w7qrjpd37x60gtz_mwnrxpr0000gn/T//ccbFIL6A.s:1179   .debug_str:00000000000003d9 .LASF29
/var/folders/v8/5w7qrjpd37x60gtz_mwnrxpr0000gn/T//ccbFIL6A.s:1181   .debug_str:00000000000003e4 .LASF30
/var/folders/v8/5w7qrjpd37x60gtz_mwnrxpr0000gn/T//ccbFIL6A.s:1185   .debug_str:00000000000003f9 .LASF31
/var/folders/v8/5w7qrjpd37x60gtz_mwnrxpr0000gn/T//ccbFIL6A.s:1187   .debug_str:0000000000000403 .LASF32
/var/folders/v8/5w7qrjpd37x60gtz_mwnrxpr0000gn/T//ccbFIL6A.s:1155   .debug_str:0000000000000313 .LASF33
/var/folders/v8/5w7qrjpd37x60gtz_mwnrxpr0000gn/T//ccbFIL6A.s:1157   .debug_str:000000000000031c .LASF34
/var/folders/v8/5w7qrjpd37x60gtz_mwnrxpr0000gn/T//ccbFIL6A.s:1095   .debug_str:0000000000000125 .LASF35
/var/folders/v8/5w7qrjpd37x60gtz_mwnrxpr0000gn/T//ccbFIL6A.s:1097   .debug_str:000000000000012e .LASF36
/var/folders/v8/5w7qrjpd37x60gtz_mwnrxpr0000gn/T//ccbFIL6A.s:1137   .debug_str:0000000000000222 .LASF37
/var/folders/v8/5w7qrjpd37x60gtz_mwnrxpr0000gn/T//ccbFIL6A.s:1151   .debug_str:00000000000002f8 .LASF38
/var/folders/v8/5w7qrjpd37x60gtz_mwnrxpr0000gn/T//ccbFIL6A.s:1165   .debug_str:0000000000000361 .LASF39
/var/folders/v8/5w7qrjpd37x60gtz_mwnrxpr0000gn/T//ccbFIL6A.s:1083   .debug_str:00000000000000f4 .LASF40
/var/folders/v8/5w7qrjpd37x60gtz_mwnrxpr0000gn/T//ccbFIL6A.s:1059   .debug_str:0000000000000051 .LASF41
/var/folders/v8/5w7qrjpd37x60gtz_mwnrxpr0000gn/T//ccbFIL6A.s:1065   .debug_str:0000000000000073 .LASF42
/var/folders/v8/5w7qrjpd37x60gtz_mwnrxpr0000gn/T//ccbFIL6A.s:1067   .debug_str:000000000000007d .LASF43
/var/folders/v8/5w7qrjpd37x60gtz_mwnrxpr0000gn/T//ccbFIL6A.s:1069   .debug_str:0000000000000087 .LASF44
/var/folders/v8/5w7qrjpd37x60gtz_mwnrxpr0000gn/T//ccbFIL6A.s:1071   .debug_str:0000000000000091 .LASF45
/var/folders/v8/5w7qrjpd37x60gtz_mwnrxpr0000gn/T//ccbFIL6A.s:1073   .debug_str:000000000000009b .LASF46
/var/folders/v8/5w7qrjpd37x60gtz_mwnrxpr0000gn/T//ccbFIL6A.s:1133   .debug_str:0000000000000210 .LASF47
/var/folders/v8/5w7qrjpd37x60gtz_mwnrxpr0000gn/T//ccbFIL6A.s:1135   .debug_str:0000000000000219 .LASF48
/var/folders/v8/5w7qrjpd37x60gtz_mwnrxpr0000gn/T//ccbFIL6A.s:1113   .debug_str:0000000000000191 .LASF49
/var/folders/v8/5w7qrjpd37x60gtz_mwnrxpr0000gn/T//ccbFIL6A.s:1107   .debug_str:0000000000000176 .LASF50
/var/folders/v8/5w7qrjpd37x60gtz_mwnrxpr0000gn/T//ccbFIL6A.s:1177   .debug_str:00000000000003ce .LASF51
/var/folders/v8/5w7qrjpd37x60gtz_mwnrxpr0000gn/T//ccbFIL6A.s:1127   .debug_str:00000000000001de .LASF52
/var/folders/v8/5w7qrjpd37x60gtz_mwnrxpr0000gn/T//ccbFIL6A.s:1063   .debug_str:0000000000000063 .LASF71
/var/folders/v8/5w7qrjpd37x60gtz_mwnrxpr0000gn/T//ccbFIL6A.s:14     .text.ADC3powerUpInit:0000000000000000 .LFB2
/var/folders/v8/5w7qrjpd37x60gtz_mwnrxpr0000gn/T//ccbFIL6A.s:131    .text.ADC3powerUpInit:00000000000000f8 .LFE2
/var/folders/v8/5w7qrjpd37x60gtz_mwnrxpr0000gn/T//ccbFIL6A.s:1016   .debug_loc:0000000000000000 .LLST0
/var/folders/v8/5w7qrjpd37x60gtz_mwnrxpr0000gn/T//ccbFIL6A.s:32     .text.ADC3powerUpInit:0000000000000012 .LVL0
/var/folders/v8/5w7qrjpd37x60gtz_mwnrxpr0000gn/T//ccbFIL6A.s:36     .text.ADC3powerUpInit:000000000000001e .LVL1
/var/folders/v8/5w7qrjpd37x60gtz_mwnrxpr0000gn/T//ccbFIL6A.s:40     .text.ADC3powerUpInit:0000000000000028 .LVL2
/var/folders/v8/5w7qrjpd37x60gtz_mwnrxpr0000gn/T//ccbFIL6A.s:51     .text.ADC3powerUpInit:0000000000000042 .LVL3
/var/folders/v8/5w7qrjpd37x60gtz_mwnrxpr0000gn/T//ccbFIL6A.s:55     .text.ADC3powerUpInit:000000000000004e .LVL4
/var/folders/v8/5w7qrjpd37x60gtz_mwnrxpr0000gn/T//ccbFIL6A.s:59     .text.ADC3powerUpInit:0000000000000058 .LVL5
GAS LISTING /var/folders/v8/5w7qrjpd37x60gtz_mwnrxpr0000gn/T//ccbFIL6A.s 			page 7


/var/folders/v8/5w7qrjpd37x60gtz_mwnrxpr0000gn/T//ccbFIL6A.s:65     .text.ADC3powerUpInit:0000000000000068 .LVL6
/var/folders/v8/5w7qrjpd37x60gtz_mwnrxpr0000gn/T//ccbFIL6A.s:71     .text.ADC3powerUpInit:000000000000007a .LVL7
/var/folders/v8/5w7qrjpd37x60gtz_mwnrxpr0000gn/T//ccbFIL6A.s:76     .text.ADC3powerUpInit:0000000000000088 .LVL8
/var/folders/v8/5w7qrjpd37x60gtz_mwnrxpr0000gn/T//ccbFIL6A.s:82     .text.ADC3powerUpInit:0000000000000098 .LVL9
/var/folders/v8/5w7qrjpd37x60gtz_mwnrxpr0000gn/T//ccbFIL6A.s:89     .text.ADC3powerUpInit:00000000000000aa .LVL10
/var/folders/v8/5w7qrjpd37x60gtz_mwnrxpr0000gn/T//ccbFIL6A.s:95     .text.ADC3powerUpInit:00000000000000bc .LVL11
/var/folders/v8/5w7qrjpd37x60gtz_mwnrxpr0000gn/T//ccbFIL6A.s:101    .text.ADC3powerUpInit:00000000000000cc .LVL12
/var/folders/v8/5w7qrjpd37x60gtz_mwnrxpr0000gn/T//ccbFIL6A.s:105    .text.ADC3powerUpInit:00000000000000d8 .LVL13
/var/folders/v8/5w7qrjpd37x60gtz_mwnrxpr0000gn/T//ccbFIL6A.s:111    .text.ADC3powerUpInit:00000000000000e4 .LVL14
/var/folders/v8/5w7qrjpd37x60gtz_mwnrxpr0000gn/T//ccbFIL6A.s:129    .text.ADC3powerUpInit:00000000000000f8 .LVL15
/var/folders/v8/5w7qrjpd37x60gtz_mwnrxpr0000gn/T//ccbFIL6A.s:1131   .debug_str:00000000000001f8 .LASF53
/var/folders/v8/5w7qrjpd37x60gtz_mwnrxpr0000gn/T//ccbFIL6A.s:1189   .debug_str:000000000000040d .LASF54
/var/folders/v8/5w7qrjpd37x60gtz_mwnrxpr0000gn/T//ccbFIL6A.s:1175   .debug_str:00000000000003c4 .LASF55
/var/folders/v8/5w7qrjpd37x60gtz_mwnrxpr0000gn/T//ccbFIL6A.s:1061   .debug_str:0000000000000058 .LASF56
/var/folders/v8/5w7qrjpd37x60gtz_mwnrxpr0000gn/T//ccbFIL6A.s:1099   .debug_str:0000000000000137 .LASF57
/var/folders/v8/5w7qrjpd37x60gtz_mwnrxpr0000gn/T//ccbFIL6A.s:1077   .debug_str:00000000000000bf .LASF58
/var/folders/v8/5w7qrjpd37x60gtz_mwnrxpr0000gn/T//ccbFIL6A.s:1149   .debug_str:00000000000002de .LASF59
/var/folders/v8/5w7qrjpd37x60gtz_mwnrxpr0000gn/T//ccbFIL6A.s:1075   .debug_str:00000000000000a5 .LASF60
/var/folders/v8/5w7qrjpd37x60gtz_mwnrxpr0000gn/T//ccbFIL6A.s:1173   .debug_str:00000000000003a9 .LASF61
/var/folders/v8/5w7qrjpd37x60gtz_mwnrxpr0000gn/T//ccbFIL6A.s:1167   .debug_str:0000000000000369 .LASF62
/var/folders/v8/5w7qrjpd37x60gtz_mwnrxpr0000gn/T//ccbFIL6A.s:1101   .debug_str:0000000000000147 .LASF63
/var/folders/v8/5w7qrjpd37x60gtz_mwnrxpr0000gn/T//ccbFIL6A.s:1171   .debug_str:000000000000039e .LASF64
/var/folders/v8/5w7qrjpd37x60gtz_mwnrxpr0000gn/T//ccbFIL6A.s:1163   .debug_str:000000000000034a .LASF65
/var/folders/v8/5w7qrjpd37x60gtz_mwnrxpr0000gn/T//ccbFIL6A.s:1159   .debug_str:0000000000000325 .LASF66
/var/folders/v8/5w7qrjpd37x60gtz_mwnrxpr0000gn/T//ccbFIL6A.s:21     .text.ADC3powerUpInit:0000000000000002 .LCFI0
/var/folders/v8/5w7qrjpd37x60gtz_mwnrxpr0000gn/T//ccbFIL6A.s:125    .text.ADC3powerUpInit:00000000000000f0 .LCFI1
/var/folders/v8/5w7qrjpd37x60gtz_mwnrxpr0000gn/T//ccbFIL6A.s:143    .debug_info:0000000000000000 .Ldebug_info0

UNDEFINED SYMBOLS
rcu_periph_clock_enable
rcu_adc_clock_config
gpio_init
adc_deinit
adc_mode_config
adc_special_function_config
adc_data_alignment_config
adc_channel_length_config
adc_regular_channel_config
adc_external_trigger_source_config
adc_external_trigger_config
adc_enable
adc_calibration_enable
adc_software_trigger_enable
