GAS LISTING /var/folders/v8/5w7qrjpd37x60gtz_mwnrxpr0000gn/T//cc9fNw1D.s 			page 1


   1              		.file	"aTan.c"
   2              		.option nopic
   3              		.attribute arch, "rv32i2p0_m2p0_a2p0_c2p0"
   4              		.attribute unaligned_access, 0
   5              		.attribute stack_align, 16
   6              		.text
   7              	.Ltext0:
   8              		.cfi_sections	.debug_frame
   9              		.section	.text.arctan,"ax",@progbits
  10              		.align	1
  11              		.globl	arctan
  13              	arctan:
  14              	.LFB2:
  15              		.file 1 "lib/Arctan/src/aTan.c"
   1:lib/Arctan/src/aTan.c **** /* Copyright (c) 2022 Max Gulda, KTH
   2:lib/Arctan/src/aTan.c **** 
   3:lib/Arctan/src/aTan.c **** Permission is hereby granted, free of charge, to any person obtaining a copy
   4:lib/Arctan/src/aTan.c **** of this software and associated documentation files (the "Software"), to deal
   5:lib/Arctan/src/aTan.c **** in the Software without restriction, including without limitation the rights
   6:lib/Arctan/src/aTan.c **** to use, copy, modify, merge, publish, distribute, sublicense, and/or sell
   7:lib/Arctan/src/aTan.c **** copies of the Software, and to permit persons to whom the Software is
   8:lib/Arctan/src/aTan.c **** furnished to do so, subject to the following conditions:
   9:lib/Arctan/src/aTan.c **** 
  10:lib/Arctan/src/aTan.c **** The above copyright notice and this permission notice shall be included in all
  11:lib/Arctan/src/aTan.c **** copies or substantial portions of the Software.
  12:lib/Arctan/src/aTan.c **** 
  13:lib/Arctan/src/aTan.c **** THE SOFTWARE IS PROVIDED "AS IS", WITHOUT WARRANTY OF ANY KIND, EXPRESS OR
  14:lib/Arctan/src/aTan.c **** IMPLIED, INCLUDING BUT NOT LIMITED TO THE WARRANTIES OF MERCHANTABILITY,
  15:lib/Arctan/src/aTan.c **** FITNESS FOR A PARTICULAR PURPOSE AND NONINFRINGEMENT. IN NO EVENT SHALL THE
  16:lib/Arctan/src/aTan.c **** AUTHORS OR COPYRIGHT HOLDERS BE LIABLE FOR ANY CLAIM, DAMAGES OR OTHER
  17:lib/Arctan/src/aTan.c **** LIABILITY, WHETHER IN AN ACTION OF CONTRACT, TORT OR OTHERWISE, ARISING FROM,
  18:lib/Arctan/src/aTan.c **** OUT OF OR IN CONNECTION WITH THE SOFTWARE OR THE USE OR OTHER DEALINGS IN THE
  19:lib/Arctan/src/aTan.c **** SOFTWARE. */
  20:lib/Arctan/src/aTan.c **** 
  21:lib/Arctan/src/aTan.c **** #include "aTan.h"
  22:lib/Arctan/src/aTan.c **** 
  23:lib/Arctan/src/aTan.c **** #define NINETY 23040
  24:lib/Arctan/src/aTan.c **** #define HUNDREDEIGHTY 92160
  25:lib/Arctan/src/aTan.c **** 
  26:lib/Arctan/src/aTan.c **** 
  27:lib/Arctan/src/aTan.c **** 
  28:lib/Arctan/src/aTan.c **** int arctan(int32_t x, int32_t y){
  16              		.loc 1 28 33
  17              		.cfi_startproc
  18              	.LVL0:
  29:lib/Arctan/src/aTan.c **** 
  30:lib/Arctan/src/aTan.c ****     /* AngTable = 45, 26.565, 14.036, 7.125, 3.576, 1.790, 0.895, 0.448, 0.225, 0.112, 0.056, 0.028
  31:lib/Arctan/src/aTan.c **** 
  32:lib/Arctan/src/aTan.c ****     int LUT_CORDIC_ATAN[15] = {11520, 6801, 3593, 1824, 916, 458, 229, 115, 57, 28, 14, 7, 4, 2, 1}
  19              		.loc 1 32 5
  20              		.loc 1 32 9 is_stmt 0
  21 0000 B7070000 		lui	a5,%hi(.LANCHOR0)
  28:lib/Arctan/src/aTan.c **** 
  22              		.loc 1 28 33
  23 0004 3971     		addi	sp,sp,-64
  24              	.LCFI0:
  25              		.cfi_def_cfa_offset 64
GAS LISTING /var/folders/v8/5w7qrjpd37x60gtz_mwnrxpr0000gn/T//cc9fNw1D.s 			page 2


  26              		.loc 1 32 9
  27 0006 93870700 		addi	a5,a5,%lo(.LANCHOR0)
  28:lib/Arctan/src/aTan.c **** 
  28              		.loc 1 28 33
  29 000a 2A86     		mv	a2,a0
  30              		.loc 1 32 9
  31 000c 5800     		addi	a4,sp,4
  32 000e 138EC703 		addi	t3,a5,60
  33              	.LVL1:
  34              	.L2:
  35 0012 03A30700 		lw	t1,0(a5)
  36 0016 83A84700 		lw	a7,4(a5)
  37 001a 03A88700 		lw	a6,8(a5)
  38 001e C847     		lw	a0,12(a5)
  39 0020 944B     		lw	a3,16(a5)
  40 0022 23206700 		sw	t1,0(a4)
  41 0026 23221701 		sw	a7,4(a4)
  42 002a 23240701 		sw	a6,8(a4)
  43 002e 48C7     		sw	a0,12(a4)
  44 0030 14CB     		sw	a3,16(a4)
  45 0032 D107     		addi	a5,a5,20
  46 0034 5107     		addi	a4,a4,20
  47 0036 E39EC7FD 		bne	a5,t3,.L2
  33:lib/Arctan/src/aTan.c ****     int sumAngle = 0;
  48              		.loc 1 33 5 is_stmt 1
  49              	.LVL2:
  34:lib/Arctan/src/aTan.c ****     int newX=x, newY=y;
  50              		.loc 1 34 5
  35:lib/Arctan/src/aTan.c ****     if(x<0 && y>0){              
  51              		.loc 1 35 5
  52              		.loc 1 35 7 is_stmt 0
  53 003a 63400606 		blt	a2,zero,.L15
  36:lib/Arctan/src/aTan.c ****         sumAngle = 180*256; 
  37:lib/Arctan/src/aTan.c ****         x = -x;
  38:lib/Arctan/src/aTan.c ****         y = -y;
  39:lib/Arctan/src/aTan.c ****     }else if(y < 0 && x>0){  
  54              		.loc 1 39 11 is_stmt 1
  55              		.loc 1 39 13 is_stmt 0
  56 003e 63C70504 		blt	a1,zero,.L16
  57              	.L9:
  58 0042 2E88     		mv	a6,a1
  59 0044 3287     		mv	a4,a2
  33:lib/Arctan/src/aTan.c ****     int newX=x, newY=y;
  60              		.loc 1 33 9
  61 0046 0145     		li	a0,0
  62              	.LVL3:
  63              	.L4:
  64 0048 5400     		addi	a3,sp,4
  65              		.loc 1 39 20
  66 004a 8147     		li	a5,0
  67              	.LBB2:
  40:lib/Arctan/src/aTan.c ****         sumAngle = 360*256;
  41:lib/Arctan/src/aTan.c ****     }
  42:lib/Arctan/src/aTan.c ****     for (int i = 0; i < 15; i++){
  68              		.loc 1 42 5
  69 004c 3D4E     		li	t3,15
  70 004e 11A8     		j	.L7
GAS LISTING /var/folders/v8/5w7qrjpd37x60gtz_mwnrxpr0000gn/T//cc9fNw1D.s 			page 3


  71              	.LVL4:
  72              	.L18:
  43:lib/Arctan/src/aTan.c ****         if(y>0){
  44:lib/Arctan/src/aTan.c ****             /* Rotate clockwise */
  45:lib/Arctan/src/aTan.c ****             newX += (y>>i);
  46:lib/Arctan/src/aTan.c ****             newY -= (x>>i);
  73              		.loc 1 46 18
  74 0050 998D     		sub	a1,a1,a4
  75              	.LVL5:
  45:lib/Arctan/src/aTan.c ****             newY -= (x>>i);
  76              		.loc 1 45 18
  77 0052 1A96     		add	a2,a2,t1
  78              	.LVL6:
  79              		.loc 1 46 13 is_stmt 1
  47:lib/Arctan/src/aTan.c ****             sumAngle += LUT_CORDIC_ATAN[i];
  80              		.loc 1 47 13
  42:lib/Arctan/src/aTan.c ****         if(y>0){
  81              		.loc 1 42 30 is_stmt 0
  82 0054 8507     		addi	a5,a5,1
  83              	.LVL7:
  84              		.loc 1 47 22
  85 0056 4695     		add	a0,a0,a7
  86              	.LVL8:
  48:lib/Arctan/src/aTan.c ****         }else{
  49:lib/Arctan/src/aTan.c ****             /* Rotate counterclockwise */
  50:lib/Arctan/src/aTan.c ****             newX -= (y>>i);
  51:lib/Arctan/src/aTan.c ****             newY += (x>>i);
  52:lib/Arctan/src/aTan.c ****             sumAngle -= LUT_CORDIC_ATAN[i];
  53:lib/Arctan/src/aTan.c ****         }
  54:lib/Arctan/src/aTan.c ****         x = newX;
  87              		.loc 1 54 9 is_stmt 1
  55:lib/Arctan/src/aTan.c ****         y = newY;
  88              		.loc 1 55 9
  89 0058 9106     		addi	a3,a3,4
  54:lib/Arctan/src/aTan.c ****         y = newY;
  90              		.loc 1 54 11 is_stmt 0
  91 005a 3287     		mv	a4,a2
  92              		.loc 1 55 11
  93 005c 2E88     		mv	a6,a1
  42:lib/Arctan/src/aTan.c ****         if(y>0){
  94              		.loc 1 42 5
  95 005e 6385C703 		beq	a5,t3,.L17
  96              	.LVL9:
  97              	.L7:
  43:lib/Arctan/src/aTan.c ****             /* Rotate clockwise */
  98              		.loc 1 43 9 is_stmt 1
  45:lib/Arctan/src/aTan.c ****             newY -= (x>>i);
  99              		.loc 1 45 13
  50:lib/Arctan/src/aTan.c ****             newY += (x>>i);
 100              		.loc 1 50 13
 101 0062 83A80600 		lw	a7,0(a3)
 102 0066 3353F840 		sra	t1,a6,a5
 103 006a 3357F740 		sra	a4,a4,a5
  43:lib/Arctan/src/aTan.c ****             /* Rotate clockwise */
 104              		.loc 1 43 11 is_stmt 0
 105 006e E34100FF 		bgt	a6,zero,.L18
  51:lib/Arctan/src/aTan.c ****             sumAngle -= LUT_CORDIC_ATAN[i];
GAS LISTING /var/folders/v8/5w7qrjpd37x60gtz_mwnrxpr0000gn/T//cc9fNw1D.s 			page 4


 106              		.loc 1 51 18
 107 0072 BA95     		add	a1,a1,a4
 108              	.LVL10:
  50:lib/Arctan/src/aTan.c ****             newY += (x>>i);
 109              		.loc 1 50 18
 110 0074 33066640 		sub	a2,a2,t1
 111              	.LVL11:
  51:lib/Arctan/src/aTan.c ****             sumAngle -= LUT_CORDIC_ATAN[i];
 112              		.loc 1 51 13 is_stmt 1
  52:lib/Arctan/src/aTan.c ****         }
 113              		.loc 1 52 13
  42:lib/Arctan/src/aTan.c ****         if(y>0){
 114              		.loc 1 42 30 is_stmt 0
 115 0078 8507     		addi	a5,a5,1
 116              	.LVL12:
  52:lib/Arctan/src/aTan.c ****         }
 117              		.loc 1 52 22
 118 007a 33051541 		sub	a0,a0,a7
 119              	.LVL13:
  54:lib/Arctan/src/aTan.c ****         y = newY;
 120              		.loc 1 54 9 is_stmt 1
 121              		.loc 1 55 9
 122 007e 9106     		addi	a3,a3,4
  54:lib/Arctan/src/aTan.c ****         y = newY;
 123              		.loc 1 54 11 is_stmt 0
 124 0080 3287     		mv	a4,a2
 125              		.loc 1 55 11
 126 0082 2E88     		mv	a6,a1
  42:lib/Arctan/src/aTan.c ****         if(y>0){
 127              		.loc 1 42 5
 128 0084 E39FC7FD 		bne	a5,t3,.L7
 129              	.L17:
 130              	.LBE2:
  56:lib/Arctan/src/aTan.c ****     }
  57:lib/Arctan/src/aTan.c ****     /* If hypotenusa calculation is needed you will need to multiply 'x' by the cordic-gain which i
  58:lib/Arctan/src/aTan.c ****     The cordic gain for all 15 angles is 0.607252935 */
  59:lib/Arctan/src/aTan.c ****     return sumAngle;
  60:lib/Arctan/src/aTan.c **** }
 131              		.loc 1 60 1
 132 0088 2161     		addi	sp,sp,64
 133              	.LCFI1:
 134              		.cfi_remember_state
 135              		.cfi_def_cfa_offset 0
 136 008a 8280     		jr	ra
 137              	.LVL14:
 138              	.L16:
 139              	.LCFI2:
 140              		.cfi_restore_state
  39:lib/Arctan/src/aTan.c ****         sumAngle = 360*256;
 141              		.loc 1 39 20 discriminator 1
 142 008c 0DC2     		beq	a2,zero,.L19
  40:lib/Arctan/src/aTan.c ****     }
 143              		.loc 1 40 18
 144 008e 5D65     		li	a0,94208
 145 0090 2E88     		mv	a6,a1
 146 0092 3287     		mv	a4,a2
 147 0094 13050580 		addi	a0,a0,-2048
GAS LISTING /var/folders/v8/5w7qrjpd37x60gtz_mwnrxpr0000gn/T//cc9fNw1D.s 			page 5


 148 0098 45BF     		j	.L4
 149              	.L15:
  35:lib/Arctan/src/aTan.c ****         sumAngle = 180*256; 
 150              		.loc 1 35 12 discriminator 1
 151 009a E354B0FA 		ble	a1,zero,.L9
  36:lib/Arctan/src/aTan.c ****         x = -x;
 152              		.loc 1 36 9 is_stmt 1
 153              	.LVL15:
  37:lib/Arctan/src/aTan.c ****         y = -y;
 154              		.loc 1 37 9
  36:lib/Arctan/src/aTan.c ****         x = -x;
 155              		.loc 1 36 18 is_stmt 0
 156 009e 2D65     		li	a0,45056
  37:lib/Arctan/src/aTan.c ****         y = -y;
 157              		.loc 1 37 11
 158 00a0 3307C040 		neg	a4,a2
 159              	.LVL16:
  38:lib/Arctan/src/aTan.c ****     }else if(y < 0 && x>0){  
 160              		.loc 1 38 9 is_stmt 1
  38:lib/Arctan/src/aTan.c ****     }else if(y < 0 && x>0){  
 161              		.loc 1 38 11 is_stmt 0
 162 00a4 3308B040 		neg	a6,a1
 163              	.LVL17:
  36:lib/Arctan/src/aTan.c ****         x = -x;
 164              		.loc 1 36 18
 165 00a8 13050540 		addi	a0,a0,1024
  38:lib/Arctan/src/aTan.c ****     }else if(y < 0 && x>0){  
 166              		.loc 1 38 11
 167 00ac 71BF     		j	.L4
 168              	.LVL18:
 169              	.L19:
  33:lib/Arctan/src/aTan.c ****     int newX=x, newY=y;
 170              		.loc 1 33 9
 171 00ae 0145     		li	a0,0
  39:lib/Arctan/src/aTan.c ****         sumAngle = 360*256;
 172              		.loc 1 39 20
 173 00b0 2E88     		mv	a6,a1
 174 00b2 0147     		li	a4,0
 175 00b4 51BF     		j	.L4
 176              		.cfi_endproc
 177              	.LFE2:
 179              		.section	.text.cordic_sqrt,"ax",@progbits
 180              		.align	1
 181              		.globl	cordic_sqrt
 183              	cordic_sqrt:
 184              	.LFB3:
  61:lib/Arctan/src/aTan.c **** 
  62:lib/Arctan/src/aTan.c **** int cordic_sqrt(int x){
 185              		.loc 1 62 23 is_stmt 1
 186              		.cfi_startproc
 187              	.LVL19:
  63:lib/Arctan/src/aTan.c **** int base, i, y;
 188              		.loc 1 63 1
  64:lib/Arctan/src/aTan.c ****        base = 128;
 189              		.loc 1 64 8
  65:lib/Arctan/src/aTan.c ****        y = 0;
 190              		.loc 1 65 8
GAS LISTING /var/folders/v8/5w7qrjpd37x60gtz_mwnrxpr0000gn/T//cc9fNw1D.s 			page 6


  66:lib/Arctan/src/aTan.c ****        for (i = 1; i <= 8; i++){
 191              		.loc 1 66 8
  62:lib/Arctan/src/aTan.c **** int base, i, y;
 192              		.loc 1 62 23 is_stmt 0
 193 0000 2147     		li	a4,8
  65:lib/Arctan/src/aTan.c ****        y = 0;
 194              		.loc 1 65 10
 195 0002 0146     		li	a2,0
 196              	.LVL20:
 197              	.L22:
  67:lib/Arctan/src/aTan.c ****                y +=  base;
 198              		.loc 1 67 16 is_stmt 1
 199              		.loc 1 67 18 is_stmt 0
 200 0004 93070608 		addi	a5,a2,128
 201              	.LVL21:
  68:lib/Arctan/src/aTan.c ****                if  ( (y * y) > x ){
 202              		.loc 1 68 16 is_stmt 1
 203              		.loc 1 68 25 is_stmt 0
 204 0008 B386F702 		mul	a3,a5,a5
 205 000c 7D17     		addi	a4,a4,-1
 206              	.LVL22:
 207              		.loc 1 68 20
 208 000e 6343D500 		bgt	a3,a0,.L21
  67:lib/Arctan/src/aTan.c ****                y +=  base;
 209              		.loc 1 67 18
 210 0012 3E86     		mv	a2,a5
 211              	.L21:
 212              	.LVL23:
  69:lib/Arctan/src/aTan.c ****                        y -= base;  // base should not have been added, substract again
  70:lib/Arctan/src/aTan.c ****                }
  71:lib/Arctan/src/aTan.c ****                base >> 1;      // shift 1 digit to the right
 213              		.loc 1 71 16 is_stmt 1 discriminator 2
  66:lib/Arctan/src/aTan.c ****                y +=  base;
 214              		.loc 1 66 8 is_stmt 0 discriminator 2
 215 0014 65FB     		bne	a4,zero,.L22
  72:lib/Arctan/src/aTan.c ****         }
  73:lib/Arctan/src/aTan.c ****         return y;
 216              		.loc 1 73 9 is_stmt 1
  74:lib/Arctan/src/aTan.c **** }...
 217              		.loc 1 74 1 is_stmt 0
 218 0016 3285     		mv	a0,a2
 219              	.LVL24:
 220 0018 8280     		ret
 221              		.cfi_endproc
 222              	.LFE3:
 224              		.section	.rodata
 225              		.align	2
 226              		.set	.LANCHOR0,. + 0
 227              	.LC0:
 228 0000 002D0000 		.word	11520
 229 0004 911A0000 		.word	6801
 230 0008 090E0000 		.word	3593
 231 000c 20070000 		.word	1824
 232 0010 94030000 		.word	916
 233 0014 CA010000 		.word	458
 234 0018 E5000000 		.word	229
 235 001c 73000000 		.word	115
GAS LISTING /var/folders/v8/5w7qrjpd37x60gtz_mwnrxpr0000gn/T//cc9fNw1D.s 			page 7


 236 0020 39000000 		.word	57
 237 0024 1C000000 		.word	28
 238 0028 0E000000 		.word	14
 239 002c 07000000 		.word	7
 240 0030 04000000 		.word	4
 241 0034 02000000 		.word	2
 242 0038 01000000 		.word	1
 243              		.text
 244              	.Letext0:
 245              		.file 2 "/Users/gulda/Desktop/toolchain-gd32v-osx/compiler/riscv64-unknown-elf/include/machine/_de
 246              		.file 3 "/Users/gulda/Desktop/toolchain-gd32v-osx/compiler/riscv64-unknown-elf/include/sys/_stdint
 247              		.file 4 "../../firmware/GD32VF103_standard_peripheral/system_gd32vf103.h"
GAS LISTING /var/folders/v8/5w7qrjpd37x60gtz_mwnrxpr0000gn/T//cc9fNw1D.s 			page 8


DEFINED SYMBOLS
                            *ABS*:0000000000000000 aTan.c
/var/folders/v8/5w7qrjpd37x60gtz_mwnrxpr0000gn/T//cc9fNw1D.s:13     .text.arctan:0000000000000000 arctan
/var/folders/v8/5w7qrjpd37x60gtz_mwnrxpr0000gn/T//cc9fNw1D.s:17     .text.arctan:0000000000000000 .L0 
/var/folders/v8/5w7qrjpd37x60gtz_mwnrxpr0000gn/T//cc9fNw1D.s:19     .text.arctan:0000000000000000 .L0 
/var/folders/v8/5w7qrjpd37x60gtz_mwnrxpr0000gn/T//cc9fNw1D.s:20     .text.arctan:0000000000000000 .L0 
/var/folders/v8/5w7qrjpd37x60gtz_mwnrxpr0000gn/T//cc9fNw1D.s:21     .text.arctan:0000000000000000 .L0 
/var/folders/v8/5w7qrjpd37x60gtz_mwnrxpr0000gn/T//cc9fNw1D.s:23     .text.arctan:0000000000000004 .L0 
/var/folders/v8/5w7qrjpd37x60gtz_mwnrxpr0000gn/T//cc9fNw1D.s:25     .text.arctan:0000000000000006 .L0 
/var/folders/v8/5w7qrjpd37x60gtz_mwnrxpr0000gn/T//cc9fNw1D.s:27     .text.arctan:0000000000000006 .L0 
/var/folders/v8/5w7qrjpd37x60gtz_mwnrxpr0000gn/T//cc9fNw1D.s:29     .text.arctan:000000000000000a .L0 
/var/folders/v8/5w7qrjpd37x60gtz_mwnrxpr0000gn/T//cc9fNw1D.s:31     .text.arctan:000000000000000c .L0 
/var/folders/v8/5w7qrjpd37x60gtz_mwnrxpr0000gn/T//cc9fNw1D.s:50     .text.arctan:000000000000003a .L0 
/var/folders/v8/5w7qrjpd37x60gtz_mwnrxpr0000gn/T//cc9fNw1D.s:51     .text.arctan:000000000000003a .L0 
/var/folders/v8/5w7qrjpd37x60gtz_mwnrxpr0000gn/T//cc9fNw1D.s:52     .text.arctan:000000000000003a .L0 
/var/folders/v8/5w7qrjpd37x60gtz_mwnrxpr0000gn/T//cc9fNw1D.s:53     .text.arctan:000000000000003a .L0 
/var/folders/v8/5w7qrjpd37x60gtz_mwnrxpr0000gn/T//cc9fNw1D.s:55     .text.arctan:000000000000003e .L0 
/var/folders/v8/5w7qrjpd37x60gtz_mwnrxpr0000gn/T//cc9fNw1D.s:56     .text.arctan:000000000000003e .L0 
/var/folders/v8/5w7qrjpd37x60gtz_mwnrxpr0000gn/T//cc9fNw1D.s:61     .text.arctan:0000000000000046 .L0 
/var/folders/v8/5w7qrjpd37x60gtz_mwnrxpr0000gn/T//cc9fNw1D.s:66     .text.arctan:000000000000004a .L0 
/var/folders/v8/5w7qrjpd37x60gtz_mwnrxpr0000gn/T//cc9fNw1D.s:69     .text.arctan:000000000000004c .L0 
/var/folders/v8/5w7qrjpd37x60gtz_mwnrxpr0000gn/T//cc9fNw1D.s:74     .text.arctan:0000000000000050 .L0 
/var/folders/v8/5w7qrjpd37x60gtz_mwnrxpr0000gn/T//cc9fNw1D.s:77     .text.arctan:0000000000000052 .L0 
/var/folders/v8/5w7qrjpd37x60gtz_mwnrxpr0000gn/T//cc9fNw1D.s:80     .text.arctan:0000000000000054 .L0 
/var/folders/v8/5w7qrjpd37x60gtz_mwnrxpr0000gn/T//cc9fNw1D.s:81     .text.arctan:0000000000000054 .L0 
/var/folders/v8/5w7qrjpd37x60gtz_mwnrxpr0000gn/T//cc9fNw1D.s:82     .text.arctan:0000000000000054 .L0 
/var/folders/v8/5w7qrjpd37x60gtz_mwnrxpr0000gn/T//cc9fNw1D.s:85     .text.arctan:0000000000000056 .L0 
/var/folders/v8/5w7qrjpd37x60gtz_mwnrxpr0000gn/T//cc9fNw1D.s:88     .text.arctan:0000000000000058 .L0 
/var/folders/v8/5w7qrjpd37x60gtz_mwnrxpr0000gn/T//cc9fNw1D.s:89     .text.arctan:0000000000000058 .L0 
/var/folders/v8/5w7qrjpd37x60gtz_mwnrxpr0000gn/T//cc9fNw1D.s:91     .text.arctan:000000000000005a .L0 
/var/folders/v8/5w7qrjpd37x60gtz_mwnrxpr0000gn/T//cc9fNw1D.s:93     .text.arctan:000000000000005c .L0 
/var/folders/v8/5w7qrjpd37x60gtz_mwnrxpr0000gn/T//cc9fNw1D.s:95     .text.arctan:000000000000005e .L0 
/var/folders/v8/5w7qrjpd37x60gtz_mwnrxpr0000gn/T//cc9fNw1D.s:99     .text.arctan:0000000000000062 .L0 
/var/folders/v8/5w7qrjpd37x60gtz_mwnrxpr0000gn/T//cc9fNw1D.s:100    .text.arctan:0000000000000062 .L0 
/var/folders/v8/5w7qrjpd37x60gtz_mwnrxpr0000gn/T//cc9fNw1D.s:101    .text.arctan:0000000000000062 .L0 
/var/folders/v8/5w7qrjpd37x60gtz_mwnrxpr0000gn/T//cc9fNw1D.s:105    .text.arctan:000000000000006e .L0 
/var/folders/v8/5w7qrjpd37x60gtz_mwnrxpr0000gn/T//cc9fNw1D.s:107    .text.arctan:0000000000000072 .L0 
/var/folders/v8/5w7qrjpd37x60gtz_mwnrxpr0000gn/T//cc9fNw1D.s:110    .text.arctan:0000000000000074 .L0 
/var/folders/v8/5w7qrjpd37x60gtz_mwnrxpr0000gn/T//cc9fNw1D.s:113    .text.arctan:0000000000000078 .L0 
/var/folders/v8/5w7qrjpd37x60gtz_mwnrxpr0000gn/T//cc9fNw1D.s:114    .text.arctan:0000000000000078 .L0 
/var/folders/v8/5w7qrjpd37x60gtz_mwnrxpr0000gn/T//cc9fNw1D.s:115    .text.arctan:0000000000000078 .L0 
/var/folders/v8/5w7qrjpd37x60gtz_mwnrxpr0000gn/T//cc9fNw1D.s:118    .text.arctan:000000000000007a .L0 
/var/folders/v8/5w7qrjpd37x60gtz_mwnrxpr0000gn/T//cc9fNw1D.s:121    .text.arctan:000000000000007e .L0 
/var/folders/v8/5w7qrjpd37x60gtz_mwnrxpr0000gn/T//cc9fNw1D.s:122    .text.arctan:000000000000007e .L0 
/var/folders/v8/5w7qrjpd37x60gtz_mwnrxpr0000gn/T//cc9fNw1D.s:124    .text.arctan:0000000000000080 .L0 
/var/folders/v8/5w7qrjpd37x60gtz_mwnrxpr0000gn/T//cc9fNw1D.s:126    .text.arctan:0000000000000082 .L0 
/var/folders/v8/5w7qrjpd37x60gtz_mwnrxpr0000gn/T//cc9fNw1D.s:128    .text.arctan:0000000000000084 .L0 
/var/folders/v8/5w7qrjpd37x60gtz_mwnrxpr0000gn/T//cc9fNw1D.s:132    .text.arctan:0000000000000088 .L0 
/var/folders/v8/5w7qrjpd37x60gtz_mwnrxpr0000gn/T//cc9fNw1D.s:134    .text.arctan:000000000000008a .L0 
/var/folders/v8/5w7qrjpd37x60gtz_mwnrxpr0000gn/T//cc9fNw1D.s:135    .text.arctan:000000000000008a .L0 
/var/folders/v8/5w7qrjpd37x60gtz_mwnrxpr0000gn/T//cc9fNw1D.s:140    .text.arctan:000000000000008c .L0 
/var/folders/v8/5w7qrjpd37x60gtz_mwnrxpr0000gn/T//cc9fNw1D.s:142    .text.arctan:000000000000008c .L0 
/var/folders/v8/5w7qrjpd37x60gtz_mwnrxpr0000gn/T//cc9fNw1D.s:144    .text.arctan:000000000000008e .L0 
/var/folders/v8/5w7qrjpd37x60gtz_mwnrxpr0000gn/T//cc9fNw1D.s:151    .text.arctan:000000000000009a .L0 
/var/folders/v8/5w7qrjpd37x60gtz_mwnrxpr0000gn/T//cc9fNw1D.s:154    .text.arctan:000000000000009e .L0 
/var/folders/v8/5w7qrjpd37x60gtz_mwnrxpr0000gn/T//cc9fNw1D.s:155    .text.arctan:000000000000009e .L0 
/var/folders/v8/5w7qrjpd37x60gtz_mwnrxpr0000gn/T//cc9fNw1D.s:156    .text.arctan:000000000000009e .L0 
GAS LISTING /var/folders/v8/5w7qrjpd37x60gtz_mwnrxpr0000gn/T//cc9fNw1D.s 			page 9


/var/folders/v8/5w7qrjpd37x60gtz_mwnrxpr0000gn/T//cc9fNw1D.s:158    .text.arctan:00000000000000a0 .L0 
/var/folders/v8/5w7qrjpd37x60gtz_mwnrxpr0000gn/T//cc9fNw1D.s:161    .text.arctan:00000000000000a4 .L0 
/var/folders/v8/5w7qrjpd37x60gtz_mwnrxpr0000gn/T//cc9fNw1D.s:162    .text.arctan:00000000000000a4 .L0 
/var/folders/v8/5w7qrjpd37x60gtz_mwnrxpr0000gn/T//cc9fNw1D.s:165    .text.arctan:00000000000000a8 .L0 
/var/folders/v8/5w7qrjpd37x60gtz_mwnrxpr0000gn/T//cc9fNw1D.s:167    .text.arctan:00000000000000ac .L0 
/var/folders/v8/5w7qrjpd37x60gtz_mwnrxpr0000gn/T//cc9fNw1D.s:171    .text.arctan:00000000000000ae .L0 
/var/folders/v8/5w7qrjpd37x60gtz_mwnrxpr0000gn/T//cc9fNw1D.s:173    .text.arctan:00000000000000b0 .L0 
/var/folders/v8/5w7qrjpd37x60gtz_mwnrxpr0000gn/T//cc9fNw1D.s:176    .text.arctan:00000000000000b6 .L0 
/var/folders/v8/5w7qrjpd37x60gtz_mwnrxpr0000gn/T//cc9fNw1D.s:183    .text.cordic_sqrt:0000000000000000 cordic_sqrt
/var/folders/v8/5w7qrjpd37x60gtz_mwnrxpr0000gn/T//cc9fNw1D.s:186    .text.cordic_sqrt:0000000000000000 .L0 
/var/folders/v8/5w7qrjpd37x60gtz_mwnrxpr0000gn/T//cc9fNw1D.s:188    .text.cordic_sqrt:0000000000000000 .L0 
/var/folders/v8/5w7qrjpd37x60gtz_mwnrxpr0000gn/T//cc9fNw1D.s:189    .text.cordic_sqrt:0000000000000000 .L0 
/var/folders/v8/5w7qrjpd37x60gtz_mwnrxpr0000gn/T//cc9fNw1D.s:190    .text.cordic_sqrt:0000000000000000 .L0 
/var/folders/v8/5w7qrjpd37x60gtz_mwnrxpr0000gn/T//cc9fNw1D.s:191    .text.cordic_sqrt:0000000000000000 .L0 
/var/folders/v8/5w7qrjpd37x60gtz_mwnrxpr0000gn/T//cc9fNw1D.s:192    .text.cordic_sqrt:0000000000000000 .L0 
/var/folders/v8/5w7qrjpd37x60gtz_mwnrxpr0000gn/T//cc9fNw1D.s:193    .text.cordic_sqrt:0000000000000000 .L0 
/var/folders/v8/5w7qrjpd37x60gtz_mwnrxpr0000gn/T//cc9fNw1D.s:195    .text.cordic_sqrt:0000000000000002 .L0 
/var/folders/v8/5w7qrjpd37x60gtz_mwnrxpr0000gn/T//cc9fNw1D.s:199    .text.cordic_sqrt:0000000000000004 .L0 
/var/folders/v8/5w7qrjpd37x60gtz_mwnrxpr0000gn/T//cc9fNw1D.s:200    .text.cordic_sqrt:0000000000000004 .L0 
/var/folders/v8/5w7qrjpd37x60gtz_mwnrxpr0000gn/T//cc9fNw1D.s:203    .text.cordic_sqrt:0000000000000008 .L0 
/var/folders/v8/5w7qrjpd37x60gtz_mwnrxpr0000gn/T//cc9fNw1D.s:204    .text.cordic_sqrt:0000000000000008 .L0 
/var/folders/v8/5w7qrjpd37x60gtz_mwnrxpr0000gn/T//cc9fNw1D.s:208    .text.cordic_sqrt:000000000000000e .L0 
/var/folders/v8/5w7qrjpd37x60gtz_mwnrxpr0000gn/T//cc9fNw1D.s:210    .text.cordic_sqrt:0000000000000012 .L0 
/var/folders/v8/5w7qrjpd37x60gtz_mwnrxpr0000gn/T//cc9fNw1D.s:214    .text.cordic_sqrt:0000000000000014 .L0 
/var/folders/v8/5w7qrjpd37x60gtz_mwnrxpr0000gn/T//cc9fNw1D.s:215    .text.cordic_sqrt:0000000000000014 .L0 
/var/folders/v8/5w7qrjpd37x60gtz_mwnrxpr0000gn/T//cc9fNw1D.s:217    .text.cordic_sqrt:0000000000000016 .L0 
/var/folders/v8/5w7qrjpd37x60gtz_mwnrxpr0000gn/T//cc9fNw1D.s:218    .text.cordic_sqrt:0000000000000016 .L0 
/var/folders/v8/5w7qrjpd37x60gtz_mwnrxpr0000gn/T//cc9fNw1D.s:221    .text.cordic_sqrt:000000000000001a .L0 
/var/folders/v8/5w7qrjpd37x60gtz_mwnrxpr0000gn/T//cc9fNw1D.s:226    .rodata:0000000000000000 .LANCHOR0
/var/folders/v8/5w7qrjpd37x60gtz_mwnrxpr0000gn/T//cc9fNw1D.s:179    .text.arctan:00000000000000b6 .L0 
/var/folders/v8/5w7qrjpd37x60gtz_mwnrxpr0000gn/T//cc9fNw1D.s:224    .text.cordic_sqrt:000000000000001a .L0 
                     .debug_frame:0000000000000000 .L0 
/var/folders/v8/5w7qrjpd37x60gtz_mwnrxpr0000gn/T//cc9fNw1D.s:34     .text.arctan:0000000000000012 .L2
/var/folders/v8/5w7qrjpd37x60gtz_mwnrxpr0000gn/T//cc9fNw1D.s:149    .text.arctan:000000000000009a .L15
/var/folders/v8/5w7qrjpd37x60gtz_mwnrxpr0000gn/T//cc9fNw1D.s:138    .text.arctan:000000000000008c .L16
/var/folders/v8/5w7qrjpd37x60gtz_mwnrxpr0000gn/T//cc9fNw1D.s:97     .text.arctan:0000000000000062 .L7
/var/folders/v8/5w7qrjpd37x60gtz_mwnrxpr0000gn/T//cc9fNw1D.s:129    .text.arctan:0000000000000088 .L17
/var/folders/v8/5w7qrjpd37x60gtz_mwnrxpr0000gn/T//cc9fNw1D.s:72     .text.arctan:0000000000000050 .L18
/var/folders/v8/5w7qrjpd37x60gtz_mwnrxpr0000gn/T//cc9fNw1D.s:169    .text.arctan:00000000000000ae .L19
/var/folders/v8/5w7qrjpd37x60gtz_mwnrxpr0000gn/T//cc9fNw1D.s:63     .text.arctan:0000000000000048 .L4
/var/folders/v8/5w7qrjpd37x60gtz_mwnrxpr0000gn/T//cc9fNw1D.s:57     .text.arctan:0000000000000042 .L9
/var/folders/v8/5w7qrjpd37x60gtz_mwnrxpr0000gn/T//cc9fNw1D.s:211    .text.cordic_sqrt:0000000000000014 .L21
/var/folders/v8/5w7qrjpd37x60gtz_mwnrxpr0000gn/T//cc9fNw1D.s:197    .text.cordic_sqrt:0000000000000004 .L22
/var/folders/v8/5w7qrjpd37x60gtz_mwnrxpr0000gn/T//cc9fNw1D.s:461    .debug_abbrev:0000000000000000 .Ldebug_abbrev0
/var/folders/v8/5w7qrjpd37x60gtz_mwnrxpr0000gn/T//cc9fNw1D.s:958    .debug_str:0000000000000073 .LASF21
/var/folders/v8/5w7qrjpd37x60gtz_mwnrxpr0000gn/T//cc9fNw1D.s:948    .debug_str:000000000000001b .LASF22
/var/folders/v8/5w7qrjpd37x60gtz_mwnrxpr0000gn/T//cc9fNw1D.s:992    .debug_str:0000000000000191 .LASF23
/var/folders/v8/5w7qrjpd37x60gtz_mwnrxpr0000gn/T//cc9fNw1D.s:934    .debug_ranges:0000000000000000 .Ldebug_ranges0
/var/folders/v8/5w7qrjpd37x60gtz_mwnrxpr0000gn/T//cc9fNw1D.s:942    .debug_line:0000000000000000 .Ldebug_line0
/var/folders/v8/5w7qrjpd37x60gtz_mwnrxpr0000gn/T//cc9fNw1D.s:946    .debug_str:000000000000000e .LASF0
/var/folders/v8/5w7qrjpd37x60gtz_mwnrxpr0000gn/T//cc9fNw1D.s:978    .debug_str:0000000000000146 .LASF1
/var/folders/v8/5w7qrjpd37x60gtz_mwnrxpr0000gn/T//cc9fNw1D.s:966    .debug_str:00000000000000fc .LASF2
/var/folders/v8/5w7qrjpd37x60gtz_mwnrxpr0000gn/T//cc9fNw1D.s:988    .debug_str:000000000000017f .LASF3
/var/folders/v8/5w7qrjpd37x60gtz_mwnrxpr0000gn/T//cc9fNw1D.s:976    .debug_str:0000000000000133 .LASF4
/var/folders/v8/5w7qrjpd37x60gtz_mwnrxpr0000gn/T//cc9fNw1D.s:982    .debug_str:000000000000015e .LASF6
/var/folders/v8/5w7qrjpd37x60gtz_mwnrxpr0000gn/T//cc9fNw1D.s:972    .debug_str:000000000000011f .LASF5
/var/folders/v8/5w7qrjpd37x60gtz_mwnrxpr0000gn/T//cc9fNw1D.s:974    .debug_str:0000000000000128 .LASF7
GAS LISTING /var/folders/v8/5w7qrjpd37x60gtz_mwnrxpr0000gn/T//cc9fNw1D.s 			page 10


/var/folders/v8/5w7qrjpd37x60gtz_mwnrxpr0000gn/T//cc9fNw1D.s:954    .debug_str:000000000000004a .LASF8
/var/folders/v8/5w7qrjpd37x60gtz_mwnrxpr0000gn/T//cc9fNw1D.s:944    .debug_str:0000000000000000 .LASF9
/var/folders/v8/5w7qrjpd37x60gtz_mwnrxpr0000gn/T//cc9fNw1D.s:956    .debug_str:000000000000005c .LASF10
/var/folders/v8/5w7qrjpd37x60gtz_mwnrxpr0000gn/T//cc9fNw1D.s:990    .debug_str:0000000000000189 .LASF11
/var/folders/v8/5w7qrjpd37x60gtz_mwnrxpr0000gn/T//cc9fNw1D.s:968    .debug_str:000000000000010a .LASF12
/var/folders/v8/5w7qrjpd37x60gtz_mwnrxpr0000gn/T//cc9fNw1D.s:950    .debug_str:0000000000000031 .LASF24
/var/folders/v8/5w7qrjpd37x60gtz_mwnrxpr0000gn/T//cc9fNw1D.s:980    .debug_str:0000000000000152 .LASF13
/var/folders/v8/5w7qrjpd37x60gtz_mwnrxpr0000gn/T//cc9fNw1D.s:970    .debug_str:0000000000000113 .LASF15
/var/folders/v8/5w7qrjpd37x60gtz_mwnrxpr0000gn/T//cc9fNw1D.s:184    .text.cordic_sqrt:0000000000000000 .LFB3
/var/folders/v8/5w7qrjpd37x60gtz_mwnrxpr0000gn/T//cc9fNw1D.s:222    .text.cordic_sqrt:000000000000001a .LFE3
/var/folders/v8/5w7qrjpd37x60gtz_mwnrxpr0000gn/T//cc9fNw1D.s:710    .debug_loc:0000000000000000 .LLST6
/var/folders/v8/5w7qrjpd37x60gtz_mwnrxpr0000gn/T//cc9fNw1D.s:960    .debug_str:00000000000000ed .LASF14
/var/folders/v8/5w7qrjpd37x60gtz_mwnrxpr0000gn/T//cc9fNw1D.s:724    .debug_loc:0000000000000021 .LLST7
/var/folders/v8/5w7qrjpd37x60gtz_mwnrxpr0000gn/T//cc9fNw1D.s:748    .debug_loc:0000000000000053 .LLST8
/var/folders/v8/5w7qrjpd37x60gtz_mwnrxpr0000gn/T//cc9fNw1D.s:984    .debug_str:0000000000000168 .LASF16
/var/folders/v8/5w7qrjpd37x60gtz_mwnrxpr0000gn/T//cc9fNw1D.s:14     .text.arctan:0000000000000000 .LFB2
/var/folders/v8/5w7qrjpd37x60gtz_mwnrxpr0000gn/T//cc9fNw1D.s:177    .text.arctan:00000000000000b6 .LFE2
/var/folders/v8/5w7qrjpd37x60gtz_mwnrxpr0000gn/T//cc9fNw1D.s:768    .debug_loc:0000000000000088 .LLST0
/var/folders/v8/5w7qrjpd37x60gtz_mwnrxpr0000gn/T//cc9fNw1D.s:791    .debug_loc:00000000000000c2 .LLST1
/var/folders/v8/5w7qrjpd37x60gtz_mwnrxpr0000gn/T//cc9fNw1D.s:818    .debug_loc:000000000000010c .LLST2
/var/folders/v8/5w7qrjpd37x60gtz_mwnrxpr0000gn/T//cc9fNw1D.s:986    .debug_str:000000000000016f .LASF17
/var/folders/v8/5w7qrjpd37x60gtz_mwnrxpr0000gn/T//cc9fNw1D.s:952    .debug_str:0000000000000041 .LASF18
/var/folders/v8/5w7qrjpd37x60gtz_mwnrxpr0000gn/T//cc9fNw1D.s:849    .debug_loc:0000000000000161 .LLST3
/var/folders/v8/5w7qrjpd37x60gtz_mwnrxpr0000gn/T//cc9fNw1D.s:962    .debug_str:00000000000000f2 .LASF19
/var/folders/v8/5w7qrjpd37x60gtz_mwnrxpr0000gn/T//cc9fNw1D.s:964    .debug_str:00000000000000f7 .LASF20
/var/folders/v8/5w7qrjpd37x60gtz_mwnrxpr0000gn/T//cc9fNw1D.s:877    .debug_loc:00000000000001a6 .LLST4
/var/folders/v8/5w7qrjpd37x60gtz_mwnrxpr0000gn/T//cc9fNw1D.s:67     .text.arctan:000000000000004c .LBB2
/var/folders/v8/5w7qrjpd37x60gtz_mwnrxpr0000gn/T//cc9fNw1D.s:130    .text.arctan:0000000000000088 .LBE2
/var/folders/v8/5w7qrjpd37x60gtz_mwnrxpr0000gn/T//cc9fNw1D.s:892    .debug_loc:00000000000001cf .LLST5
/var/folders/v8/5w7qrjpd37x60gtz_mwnrxpr0000gn/T//cc9fNw1D.s:187    .text.cordic_sqrt:0000000000000000 .LVL19
/var/folders/v8/5w7qrjpd37x60gtz_mwnrxpr0000gn/T//cc9fNw1D.s:219    .text.cordic_sqrt:0000000000000018 .LVL24
/var/folders/v8/5w7qrjpd37x60gtz_mwnrxpr0000gn/T//cc9fNw1D.s:196    .text.cordic_sqrt:0000000000000004 .LVL20
/var/folders/v8/5w7qrjpd37x60gtz_mwnrxpr0000gn/T//cc9fNw1D.s:206    .text.cordic_sqrt:000000000000000e .LVL22
/var/folders/v8/5w7qrjpd37x60gtz_mwnrxpr0000gn/T//cc9fNw1D.s:212    .text.cordic_sqrt:0000000000000014 .LVL23
/var/folders/v8/5w7qrjpd37x60gtz_mwnrxpr0000gn/T//cc9fNw1D.s:201    .text.cordic_sqrt:0000000000000008 .LVL21
/var/folders/v8/5w7qrjpd37x60gtz_mwnrxpr0000gn/T//cc9fNw1D.s:24     .text.arctan:0000000000000006 .LCFI0
/var/folders/v8/5w7qrjpd37x60gtz_mwnrxpr0000gn/T//cc9fNw1D.s:133    .text.arctan:000000000000008a .LCFI1
/var/folders/v8/5w7qrjpd37x60gtz_mwnrxpr0000gn/T//cc9fNw1D.s:139    .text.arctan:000000000000008c .LCFI2
/var/folders/v8/5w7qrjpd37x60gtz_mwnrxpr0000gn/T//cc9fNw1D.s:18     .text.arctan:0000000000000000 .LVL0
/var/folders/v8/5w7qrjpd37x60gtz_mwnrxpr0000gn/T//cc9fNw1D.s:33     .text.arctan:0000000000000012 .LVL1
/var/folders/v8/5w7qrjpd37x60gtz_mwnrxpr0000gn/T//cc9fNw1D.s:62     .text.arctan:0000000000000048 .LVL3
/var/folders/v8/5w7qrjpd37x60gtz_mwnrxpr0000gn/T//cc9fNw1D.s:86     .text.arctan:0000000000000058 .LVL8
/var/folders/v8/5w7qrjpd37x60gtz_mwnrxpr0000gn/T//cc9fNw1D.s:96     .text.arctan:0000000000000062 .LVL9
/var/folders/v8/5w7qrjpd37x60gtz_mwnrxpr0000gn/T//cc9fNw1D.s:119    .text.arctan:000000000000007e .LVL13
/var/folders/v8/5w7qrjpd37x60gtz_mwnrxpr0000gn/T//cc9fNw1D.s:159    .text.arctan:00000000000000a4 .LVL16
/var/folders/v8/5w7qrjpd37x60gtz_mwnrxpr0000gn/T//cc9fNw1D.s:168    .text.arctan:00000000000000ae .LVL18
/var/folders/v8/5w7qrjpd37x60gtz_mwnrxpr0000gn/T//cc9fNw1D.s:71     .text.arctan:0000000000000050 .LVL4
/var/folders/v8/5w7qrjpd37x60gtz_mwnrxpr0000gn/T//cc9fNw1D.s:163    .text.arctan:00000000000000a8 .LVL17
/var/folders/v8/5w7qrjpd37x60gtz_mwnrxpr0000gn/T//cc9fNw1D.s:49     .text.arctan:000000000000003a .LVL2
/var/folders/v8/5w7qrjpd37x60gtz_mwnrxpr0000gn/T//cc9fNw1D.s:137    .text.arctan:000000000000008c .LVL14
/var/folders/v8/5w7qrjpd37x60gtz_mwnrxpr0000gn/T//cc9fNw1D.s:153    .text.arctan:000000000000009e .LVL15
/var/folders/v8/5w7qrjpd37x60gtz_mwnrxpr0000gn/T//cc9fNw1D.s:75     .text.arctan:0000000000000052 .LVL5
/var/folders/v8/5w7qrjpd37x60gtz_mwnrxpr0000gn/T//cc9fNw1D.s:78     .text.arctan:0000000000000054 .LVL6
/var/folders/v8/5w7qrjpd37x60gtz_mwnrxpr0000gn/T//cc9fNw1D.s:108    .text.arctan:0000000000000074 .LVL10
/var/folders/v8/5w7qrjpd37x60gtz_mwnrxpr0000gn/T//cc9fNw1D.s:111    .text.arctan:0000000000000078 .LVL11
/var/folders/v8/5w7qrjpd37x60gtz_mwnrxpr0000gn/T//cc9fNw1D.s:83     .text.arctan:0000000000000056 .LVL7
/var/folders/v8/5w7qrjpd37x60gtz_mwnrxpr0000gn/T//cc9fNw1D.s:116    .text.arctan:000000000000007a .LVL12
GAS LISTING /var/folders/v8/5w7qrjpd37x60gtz_mwnrxpr0000gn/T//cc9fNw1D.s 			page 11


/var/folders/v8/5w7qrjpd37x60gtz_mwnrxpr0000gn/T//cc9fNw1D.s:249    .debug_info:0000000000000000 .Ldebug_info0

NO UNDEFINED SYMBOLS
