GAS LISTING /var/folders/v8/5w7qrjpd37x60gtz_mwnrxpr0000gn/T//ccWMyxhc.s 			page 1


   1              		.file	"delay.c"
   2              		.option nopic
   3              		.attribute arch, "rv32i2p0_m2p0_a2p0_c2p0"
   4              		.attribute unaligned_access, 0
   5              		.attribute stack_align, 16
   6              		.text
   7              	.Ltext0:
   8              		.cfi_sections	.debug_frame
   9              		.globl	__floatundidf
  10              		.globl	__floatunsidf
  11              		.globl	__divdf3
  12              		.globl	__muldf3
  13              		.globl	__ltdf2
  14              		.section	.text.delay_1ms,"ax",@progbits
  15              		.align	1
  16              		.globl	delay_1ms
  18              	delay_1ms:
  19              	.LFB2:
  20              		.file 1 "lib/delay/src/delay.c"
   1:lib/delay/src/delay.c **** #include "gd32vf103.h"
   2:lib/delay/src/delay.c **** #include "delay.h"
   3:lib/delay/src/delay.c **** 
   4:lib/delay/src/delay.c **** void delay_1ms(uint32_t count)
   5:lib/delay/src/delay.c **** {
  21              		.loc 1 5 1
  22              		.cfi_startproc
  23              	.LVL0:
   6:lib/delay/src/delay.c **** 	uint64_t start_mtime, delta_mtime;
  24              		.loc 1 6 2
   7:lib/delay/src/delay.c **** 
   8:lib/delay/src/delay.c **** 	// Don't start measuruing until we see an mtime tick
   9:lib/delay/src/delay.c **** 	uint64_t tmp = get_timer_value();
  25              		.loc 1 9 2
   5:lib/delay/src/delay.c **** 	uint64_t start_mtime, delta_mtime;
  26              		.loc 1 5 1 is_stmt 0
  27 0000 7971     		addi	sp,sp,-48
  28              	.LCFI0:
  29              		.cfi_def_cfa_offset 48
  30 0002 4AD0     		sw	s2,32(sp)
  31 0004 4ECE     		sw	s3,28(sp)
  32 0006 5EC6     		sw	s7,12(sp)
  33 0008 06D6     		sw	ra,44(sp)
  34 000a 22D4     		sw	s0,40(sp)
  35 000c 26D2     		sw	s1,36(sp)
  36 000e 52CC     		sw	s4,24(sp)
  37 0010 56CA     		sw	s5,20(sp)
  38 0012 5AC8     		sw	s6,16(sp)
  39 0014 62C4     		sw	s8,8(sp)
  40 0016 66C2     		sw	s9,4(sp)
  41              		.cfi_offset 18, -16
  42              		.cfi_offset 19, -20
  43              		.cfi_offset 23, -36
  44              		.cfi_offset 1, -4
  45              		.cfi_offset 8, -8
  46              		.cfi_offset 9, -12
  47              		.cfi_offset 20, -24
  48              		.cfi_offset 21, -28
GAS LISTING /var/folders/v8/5w7qrjpd37x60gtz_mwnrxpr0000gn/T//ccWMyxhc.s 			page 2


  49              		.cfi_offset 22, -32
  50              		.cfi_offset 24, -40
  51              		.cfi_offset 25, -44
   5:lib/delay/src/delay.c **** 	uint64_t start_mtime, delta_mtime;
  52              		.loc 1 5 1
  53 0018 AA8B     		mv	s7,a0
  54              		.loc 1 9 17
  55 001a 97000000 		call	get_timer_value
  55      E7800000 
  56              	.LVL1:
  57 0022 2A89     		mv	s2,a0
  58 0024 AE89     		mv	s3,a1
  59              	.LVL2:
  60              	.L2:
  10:lib/delay/src/delay.c **** 	do {
  61              		.loc 1 10 2 is_stmt 1 discriminator 1
  11:lib/delay/src/delay.c **** 	    start_mtime = get_timer_value();
  62              		.loc 1 11 6 discriminator 1
  63              		.loc 1 11 20 is_stmt 0 discriminator 1
  64 0026 97000000 		call	get_timer_value
  64      E7800000 
  65              	.LVL3:
  66 002e 2A84     		mv	s0,a0
  67 0030 AE84     		mv	s1,a1
  68              	.LVL4:
  12:lib/delay/src/delay.c **** 	} while (start_mtime == tmp);
  69              		.loc 1 12 2 discriminator 1
  70 0032 6314A900 		bne	s2,a0,.L3
  71 0036 E388B9FE 		beq	s3,a1,.L2
  72              	.L3:
  73 003a B7070000 		lui	a5,%hi(.LC0)
  13:lib/delay/src/delay.c **** 
  14:lib/delay/src/delay.c **** 	do {
  15:lib/delay/src/delay.c **** 	    delta_mtime = get_timer_value() - start_mtime;
  16:lib/delay/src/delay.c **** 	}while(delta_mtime <(SystemCoreClock/4000.0 *count ));
  74              		.loc 1 16 38 discriminator 1
  75 003e 03A90700 		lw	s2,%lo(.LC0)(a5)
  76              	.LVL5:
  77 0042 83A94700 		lw	s3,%lo(.LC0+4)(a5)
  78 0046 370B0000 		lui	s6,%hi(SystemCoreClock)
  79              	.L4:
  14:lib/delay/src/delay.c **** 	    delta_mtime = get_timer_value() - start_mtime;
  80              		.loc 1 14 2 is_stmt 1 discriminator 1
  15:lib/delay/src/delay.c **** 	}while(delta_mtime <(SystemCoreClock/4000.0 *count ));
  81              		.loc 1 15 6 discriminator 1
  15:lib/delay/src/delay.c **** 	}while(delta_mtime <(SystemCoreClock/4000.0 *count ));
  82              		.loc 1 15 20 is_stmt 0 discriminator 1
  83 004a 97000000 		call	get_timer_value
  83      E7800000 
  84              	.LVL6:
  85 0052 AA87     		mv	a5,a0
  86              	.LVL7:
  15:lib/delay/src/delay.c **** 	}while(delta_mtime <(SystemCoreClock/4000.0 *count ));
  87              		.loc 1 15 18 discriminator 1
  88 0054 018D     		sub	a0,a0,s0
  89              	.LVL8:
  90 0056 B3B7A700 		sgtu	a5,a0,a5
GAS LISTING /var/folders/v8/5w7qrjpd37x60gtz_mwnrxpr0000gn/T//ccWMyxhc.s 			page 3


  91              	.LVL9:
  92 005a 858D     		sub	a1,a1,s1
  93              		.loc 1 16 21 discriminator 1
  94 005c 9D8D     		sub	a1,a1,a5
  95 005e 97000000 		call	__floatundidf
  95      E7800000 
  96              	.LVL10:
  97 0066 2A8A     		mv	s4,a0
  98              		.loc 1 16 38 discriminator 1
  99 0068 03250B00 		lw	a0,%lo(SystemCoreClock)(s6)
 100              		.loc 1 16 21 discriminator 1
 101 006c AE8A     		mv	s5,a1
 102              		.loc 1 16 38 discriminator 1
 103 006e 97000000 		call	__floatunsidf
 103      E7800000 
 104              	.LVL11:
 105 0076 4A86     		mv	a2,s2
 106 0078 CE86     		mv	a3,s3
 107 007a 97000000 		call	__divdf3
 107      E7800000 
 108              	.LVL12:
 109 0082 2A8C     		mv	s8,a0
 110              		.loc 1 16 46 discriminator 1
 111 0084 5E85     		mv	a0,s7
 112              		.loc 1 16 38 discriminator 1
 113 0086 AE8C     		mv	s9,a1
 114              		.loc 1 16 46 discriminator 1
 115 0088 97000000 		call	__floatunsidf
 115      E7800000 
 116              	.LVL13:
 117 0090 2A86     		mv	a2,a0
 118 0092 AE86     		mv	a3,a1
 119 0094 6285     		mv	a0,s8
 120 0096 E685     		mv	a1,s9
 121 0098 97000000 		call	__muldf3
 121      E7800000 
 122              	.LVL14:
 123              		.loc 1 16 2 discriminator 1
 124 00a0 2A86     		mv	a2,a0
 125 00a2 AE86     		mv	a3,a1
 126 00a4 5285     		mv	a0,s4
 127 00a6 D685     		mv	a1,s5
 128 00a8 97000000 		call	__ltdf2
 128      E7800000 
 129              	.LVL15:
 130 00b0 E34D05F8 		blt	a0,zero,.L4
  17:lib/delay/src/delay.c **** }
 131              		.loc 1 17 1
 132 00b4 B250     		lw	ra,44(sp)
 133              		.cfi_restore 1
 134 00b6 2254     		lw	s0,40(sp)
 135              		.cfi_restore 8
 136              	.LVL16:
 137 00b8 9254     		lw	s1,36(sp)
 138              		.cfi_restore 9
 139 00ba 0259     		lw	s2,32(sp)
 140              		.cfi_restore 18
GAS LISTING /var/folders/v8/5w7qrjpd37x60gtz_mwnrxpr0000gn/T//ccWMyxhc.s 			page 4


 141 00bc F249     		lw	s3,28(sp)
 142              		.cfi_restore 19
 143 00be 624A     		lw	s4,24(sp)
 144              		.cfi_restore 20
 145 00c0 D24A     		lw	s5,20(sp)
 146              		.cfi_restore 21
 147 00c2 424B     		lw	s6,16(sp)
 148              		.cfi_restore 22
 149 00c4 B24B     		lw	s7,12(sp)
 150              		.cfi_restore 23
 151              	.LVL17:
 152 00c6 224C     		lw	s8,8(sp)
 153              		.cfi_restore 24
 154 00c8 924C     		lw	s9,4(sp)
 155              		.cfi_restore 25
 156 00ca 4561     		addi	sp,sp,48
 157              	.LCFI1:
 158              		.cfi_def_cfa_offset 0
 159 00cc 8280     		jr	ra
 160              		.cfi_endproc
 161              	.LFE2:
 163              		.globl	__fixdfsi
 164              		.section	.text.millis,"ax",@progbits
 165              		.align	1
 166              		.globl	millis
 168              	millis:
 169              	.LFB3:
  18:lib/delay/src/delay.c **** 
  19:lib/delay/src/delay.c **** 
  20:lib/delay/src/delay.c **** int millis(void){
 170              		.loc 1 20 17 is_stmt 1
 171              		.cfi_startproc
  21:lib/delay/src/delay.c **** 	uint64_t mtime = get_timer_value();
 172              		.loc 1 21 2
  20:lib/delay/src/delay.c **** 	uint64_t mtime = get_timer_value();
 173              		.loc 1 20 17 is_stmt 0
 174 0000 4111     		addi	sp,sp,-16
 175              	.LCFI2:
 176              		.cfi_def_cfa_offset 16
 177 0002 06C6     		sw	ra,12(sp)
 178 0004 22C4     		sw	s0,8(sp)
 179 0006 26C2     		sw	s1,4(sp)
 180              		.cfi_offset 1, -4
 181              		.cfi_offset 8, -8
 182              		.cfi_offset 9, -12
 183              		.loc 1 21 19
 184 0008 97000000 		call	get_timer_value
 184      E7800000 
 185              	.LVL18:
  22:lib/delay/src/delay.c **** 	return ((mtime*4000.0)/SystemCoreClock);
 186              		.loc 1 22 2 is_stmt 1
 187              		.loc 1 22 16 is_stmt 0
 188 0010 97000000 		call	__floatundidf
 188      E7800000 
 189              	.LVL19:
 190 0018 B7070000 		lui	a5,%hi(.LC0)
 191 001c 03A60700 		lw	a2,%lo(.LC0)(a5)
GAS LISTING /var/folders/v8/5w7qrjpd37x60gtz_mwnrxpr0000gn/T//ccWMyxhc.s 			page 5


 192 0020 83A64700 		lw	a3,%lo(.LC0+4)(a5)
 193 0024 97000000 		call	__muldf3
 193      E7800000 
 194              	.LVL20:
 195              		.loc 1 22 24
 196 002c B7070000 		lui	a5,%hi(SystemCoreClock)
 197              		.loc 1 22 16
 198 0030 2A84     		mv	s0,a0
 199              		.loc 1 22 24
 200 0032 03A50700 		lw	a0,%lo(SystemCoreClock)(a5)
 201              		.loc 1 22 16
 202 0036 AE84     		mv	s1,a1
 203              		.loc 1 22 24
 204 0038 97000000 		call	__floatunsidf
 204      E7800000 
 205              	.LVL21:
 206 0040 2A86     		mv	a2,a0
 207 0042 AE86     		mv	a3,a1
 208 0044 2285     		mv	a0,s0
 209 0046 A685     		mv	a1,s1
 210 0048 97000000 		call	__divdf3
 210      E7800000 
 211              	.LVL22:
 212 0050 97000000 		call	__fixdfsi
 212      E7800000 
 213              	.LVL23:
  23:lib/delay/src/delay.c **** }
 214              		.loc 1 23 1
 215 0058 B240     		lw	ra,12(sp)
 216              		.cfi_restore 1
 217 005a 2244     		lw	s0,8(sp)
 218              		.cfi_restore 8
 219 005c 9244     		lw	s1,4(sp)
 220              		.cfi_restore 9
 221 005e 4101     		addi	sp,sp,16
 222              	.LCFI3:
 223              		.cfi_def_cfa_offset 0
 224 0060 8280     		jr	ra
 225              		.cfi_endproc
 226              	.LFE3:
 228              		.section	.text.delay_1us,"ax",@progbits
 229              		.align	1
 230              		.globl	delay_1us
 232              	delay_1us:
 233              	.LFB4:
  24:lib/delay/src/delay.c **** 
  25:lib/delay/src/delay.c **** void delay_1us(uint32_t count)
  26:lib/delay/src/delay.c **** {
 234              		.loc 1 26 1 is_stmt 1
 235              		.cfi_startproc
 236              	.LVL24:
  27:lib/delay/src/delay.c **** 	uint64_t start_mtime, delta_mtime;
 237              		.loc 1 27 2
  28:lib/delay/src/delay.c **** 
  29:lib/delay/src/delay.c **** 	// Don't start measuruing until we see an mtime tick
  30:lib/delay/src/delay.c **** 	uint64_t tmp = get_timer_value();
 238              		.loc 1 30 2
GAS LISTING /var/folders/v8/5w7qrjpd37x60gtz_mwnrxpr0000gn/T//ccWMyxhc.s 			page 6


  26:lib/delay/src/delay.c **** 	uint64_t start_mtime, delta_mtime;
 239              		.loc 1 26 1 is_stmt 0
 240 0000 7971     		addi	sp,sp,-48
 241              	.LCFI4:
 242              		.cfi_def_cfa_offset 48
 243 0002 4AD0     		sw	s2,32(sp)
 244 0004 4ECE     		sw	s3,28(sp)
 245 0006 5EC6     		sw	s7,12(sp)
 246 0008 06D6     		sw	ra,44(sp)
 247 000a 22D4     		sw	s0,40(sp)
 248 000c 26D2     		sw	s1,36(sp)
 249 000e 52CC     		sw	s4,24(sp)
 250 0010 56CA     		sw	s5,20(sp)
 251 0012 5AC8     		sw	s6,16(sp)
 252 0014 62C4     		sw	s8,8(sp)
 253 0016 66C2     		sw	s9,4(sp)
 254              		.cfi_offset 18, -16
 255              		.cfi_offset 19, -20
 256              		.cfi_offset 23, -36
 257              		.cfi_offset 1, -4
 258              		.cfi_offset 8, -8
 259              		.cfi_offset 9, -12
 260              		.cfi_offset 20, -24
 261              		.cfi_offset 21, -28
 262              		.cfi_offset 22, -32
 263              		.cfi_offset 24, -40
 264              		.cfi_offset 25, -44
  26:lib/delay/src/delay.c **** 	uint64_t start_mtime, delta_mtime;
 265              		.loc 1 26 1
 266 0018 AA8B     		mv	s7,a0
 267              		.loc 1 30 17
 268 001a 97000000 		call	get_timer_value
 268      E7800000 
 269              	.LVL25:
 270 0022 2A89     		mv	s2,a0
 271 0024 AE89     		mv	s3,a1
 272              	.LVL26:
 273              	.L11:
  31:lib/delay/src/delay.c **** 	do{
 274              		.loc 1 31 2 is_stmt 1 discriminator 1
  32:lib/delay/src/delay.c **** 	    start_mtime = get_timer_value();
 275              		.loc 1 32 6 discriminator 1
 276              		.loc 1 32 20 is_stmt 0 discriminator 1
 277 0026 97000000 		call	get_timer_value
 277      E7800000 
 278              	.LVL27:
 279 002e 2A84     		mv	s0,a0
 280 0030 AE84     		mv	s1,a1
 281              	.LVL28:
  33:lib/delay/src/delay.c **** 	}while (start_mtime == tmp);
 282              		.loc 1 33 2 discriminator 1
 283 0032 6314A900 		bne	s2,a0,.L12
 284 0036 E388B9FE 		beq	s3,a1,.L11
 285              	.L12:
 286 003a B7070000 		lui	a5,%hi(.LC1)
  34:lib/delay/src/delay.c **** 
  35:lib/delay/src/delay.c **** 	do{
GAS LISTING /var/folders/v8/5w7qrjpd37x60gtz_mwnrxpr0000gn/T//ccWMyxhc.s 			page 7


  36:lib/delay/src/delay.c **** 	    delta_mtime = get_timer_value() - start_mtime;
  37:lib/delay/src/delay.c **** 	}while(delta_mtime <(SystemCoreClock/4000000.0 *count ));
 287              		.loc 1 37 38 discriminator 1
 288 003e 03A90700 		lw	s2,%lo(.LC1)(a5)
 289              	.LVL29:
 290 0042 83A94700 		lw	s3,%lo(.LC1+4)(a5)
 291 0046 370B0000 		lui	s6,%hi(SystemCoreClock)
 292              	.L13:
  35:lib/delay/src/delay.c **** 	    delta_mtime = get_timer_value() - start_mtime;
 293              		.loc 1 35 2 is_stmt 1 discriminator 1
  36:lib/delay/src/delay.c **** 	}while(delta_mtime <(SystemCoreClock/4000000.0 *count ));
 294              		.loc 1 36 6 discriminator 1
  36:lib/delay/src/delay.c **** 	}while(delta_mtime <(SystemCoreClock/4000000.0 *count ));
 295              		.loc 1 36 20 is_stmt 0 discriminator 1
 296 004a 97000000 		call	get_timer_value
 296      E7800000 
 297              	.LVL30:
 298 0052 AA87     		mv	a5,a0
 299              	.LVL31:
  36:lib/delay/src/delay.c **** 	}while(delta_mtime <(SystemCoreClock/4000000.0 *count ));
 300              		.loc 1 36 18 discriminator 1
 301 0054 018D     		sub	a0,a0,s0
 302              	.LVL32:
 303 0056 B3B7A700 		sgtu	a5,a0,a5
 304              	.LVL33:
 305 005a 858D     		sub	a1,a1,s1
 306              		.loc 1 37 21 discriminator 1
 307 005c 9D8D     		sub	a1,a1,a5
 308 005e 97000000 		call	__floatundidf
 308      E7800000 
 309              	.LVL34:
 310 0066 2A8A     		mv	s4,a0
 311              		.loc 1 37 38 discriminator 1
 312 0068 03250B00 		lw	a0,%lo(SystemCoreClock)(s6)
 313              		.loc 1 37 21 discriminator 1
 314 006c AE8A     		mv	s5,a1
 315              		.loc 1 37 38 discriminator 1
 316 006e 97000000 		call	__floatunsidf
 316      E7800000 
 317              	.LVL35:
 318 0076 4A86     		mv	a2,s2
 319 0078 CE86     		mv	a3,s3
 320 007a 97000000 		call	__divdf3
 320      E7800000 
 321              	.LVL36:
 322 0082 2A8C     		mv	s8,a0
 323              		.loc 1 37 49 discriminator 1
 324 0084 5E85     		mv	a0,s7
 325              		.loc 1 37 38 discriminator 1
 326 0086 AE8C     		mv	s9,a1
 327              		.loc 1 37 49 discriminator 1
 328 0088 97000000 		call	__floatunsidf
 328      E7800000 
 329              	.LVL37:
 330 0090 2A86     		mv	a2,a0
 331 0092 AE86     		mv	a3,a1
 332 0094 6285     		mv	a0,s8
GAS LISTING /var/folders/v8/5w7qrjpd37x60gtz_mwnrxpr0000gn/T//ccWMyxhc.s 			page 8


 333 0096 E685     		mv	a1,s9
 334 0098 97000000 		call	__muldf3
 334      E7800000 
 335              	.LVL38:
 336              		.loc 1 37 2 discriminator 1
 337 00a0 2A86     		mv	a2,a0
 338 00a2 AE86     		mv	a3,a1
 339 00a4 5285     		mv	a0,s4
 340 00a6 D685     		mv	a1,s5
 341 00a8 97000000 		call	__ltdf2
 341      E7800000 
 342              	.LVL39:
 343 00b0 E34D05F8 		blt	a0,zero,.L13
  38:lib/delay/src/delay.c **** }...
 344              		.loc 1 38 1
 345 00b4 B250     		lw	ra,44(sp)
 346              		.cfi_restore 1
 347 00b6 2254     		lw	s0,40(sp)
 348              		.cfi_restore 8
 349              	.LVL40:
 350 00b8 9254     		lw	s1,36(sp)
 351              		.cfi_restore 9
 352 00ba 0259     		lw	s2,32(sp)
 353              		.cfi_restore 18
 354 00bc F249     		lw	s3,28(sp)
 355              		.cfi_restore 19
 356 00be 624A     		lw	s4,24(sp)
 357              		.cfi_restore 20
 358 00c0 D24A     		lw	s5,20(sp)
 359              		.cfi_restore 21
 360 00c2 424B     		lw	s6,16(sp)
 361              		.cfi_restore 22
 362 00c4 B24B     		lw	s7,12(sp)
 363              		.cfi_restore 23
 364              	.LVL41:
 365 00c6 224C     		lw	s8,8(sp)
 366              		.cfi_restore 24
 367 00c8 924C     		lw	s9,4(sp)
 368              		.cfi_restore 25
 369 00ca 4561     		addi	sp,sp,48
 370              	.LCFI5:
 371              		.cfi_def_cfa_offset 0
 372 00cc 8280     		jr	ra
 373              		.cfi_endproc
 374              	.LFE4:
 376              		.section	.rodata.delay_1ms.cst8,"aM",@progbits,8
 377              		.align	3
 378              	.LC0:
 379 0000 00000000 		.word	0
 380 0004 0040AF40 		.word	1085227008
 381              		.section	.rodata.delay_1us.cst8,"aM",@progbits,8
 382              		.align	3
 383              	.LC1:
 384 0000 00000000 		.word	0
 385 0004 80844E41 		.word	1095664768
 386              		.text
 387              	.Letext0:
GAS LISTING /var/folders/v8/5w7qrjpd37x60gtz_mwnrxpr0000gn/T//ccWMyxhc.s 			page 9


 388              		.file 2 "/Users/gulda/Desktop/toolchain-gd32v-osx/compiler/riscv64-unknown-elf/include/machine/_de
 389              		.file 3 "/Users/gulda/Desktop/toolchain-gd32v-osx/compiler/riscv64-unknown-elf/include/sys/_stdint
 390              		.file 4 "../../firmware/GD32VF103_standard_peripheral/system_gd32vf103.h"
 391              		.file 5 "../../firmware/RISCV/drivers/n200_func.h"
GAS LISTING /var/folders/v8/5w7qrjpd37x60gtz_mwnrxpr0000gn/T//ccWMyxhc.s 			page 10


DEFINED SYMBOLS
                            *ABS*:0000000000000000 delay.c
/var/folders/v8/5w7qrjpd37x60gtz_mwnrxpr0000gn/T//ccWMyxhc.s:18     .text.delay_1ms:0000000000000000 delay_1ms
/var/folders/v8/5w7qrjpd37x60gtz_mwnrxpr0000gn/T//ccWMyxhc.s:22     .text.delay_1ms:0000000000000000 .L0 
/var/folders/v8/5w7qrjpd37x60gtz_mwnrxpr0000gn/T//ccWMyxhc.s:24     .text.delay_1ms:0000000000000000 .L0 
/var/folders/v8/5w7qrjpd37x60gtz_mwnrxpr0000gn/T//ccWMyxhc.s:25     .text.delay_1ms:0000000000000000 .L0 
/var/folders/v8/5w7qrjpd37x60gtz_mwnrxpr0000gn/T//ccWMyxhc.s:26     .text.delay_1ms:0000000000000000 .L0 
/var/folders/v8/5w7qrjpd37x60gtz_mwnrxpr0000gn/T//ccWMyxhc.s:27     .text.delay_1ms:0000000000000000 .L0 
/var/folders/v8/5w7qrjpd37x60gtz_mwnrxpr0000gn/T//ccWMyxhc.s:29     .text.delay_1ms:0000000000000002 .L0 
/var/folders/v8/5w7qrjpd37x60gtz_mwnrxpr0000gn/T//ccWMyxhc.s:41     .text.delay_1ms:0000000000000018 .L0 
/var/folders/v8/5w7qrjpd37x60gtz_mwnrxpr0000gn/T//ccWMyxhc.s:42     .text.delay_1ms:0000000000000018 .L0 
/var/folders/v8/5w7qrjpd37x60gtz_mwnrxpr0000gn/T//ccWMyxhc.s:43     .text.delay_1ms:0000000000000018 .L0 
/var/folders/v8/5w7qrjpd37x60gtz_mwnrxpr0000gn/T//ccWMyxhc.s:44     .text.delay_1ms:0000000000000018 .L0 
/var/folders/v8/5w7qrjpd37x60gtz_mwnrxpr0000gn/T//ccWMyxhc.s:45     .text.delay_1ms:0000000000000018 .L0 
/var/folders/v8/5w7qrjpd37x60gtz_mwnrxpr0000gn/T//ccWMyxhc.s:46     .text.delay_1ms:0000000000000018 .L0 
/var/folders/v8/5w7qrjpd37x60gtz_mwnrxpr0000gn/T//ccWMyxhc.s:47     .text.delay_1ms:0000000000000018 .L0 
/var/folders/v8/5w7qrjpd37x60gtz_mwnrxpr0000gn/T//ccWMyxhc.s:48     .text.delay_1ms:0000000000000018 .L0 
/var/folders/v8/5w7qrjpd37x60gtz_mwnrxpr0000gn/T//ccWMyxhc.s:49     .text.delay_1ms:0000000000000018 .L0 
/var/folders/v8/5w7qrjpd37x60gtz_mwnrxpr0000gn/T//ccWMyxhc.s:50     .text.delay_1ms:0000000000000018 .L0 
/var/folders/v8/5w7qrjpd37x60gtz_mwnrxpr0000gn/T//ccWMyxhc.s:51     .text.delay_1ms:0000000000000018 .L0 
/var/folders/v8/5w7qrjpd37x60gtz_mwnrxpr0000gn/T//ccWMyxhc.s:53     .text.delay_1ms:0000000000000018 .L0 
/var/folders/v8/5w7qrjpd37x60gtz_mwnrxpr0000gn/T//ccWMyxhc.s:55     .text.delay_1ms:000000000000001a .L0 
/var/folders/v8/5w7qrjpd37x60gtz_mwnrxpr0000gn/T//ccWMyxhc.s:62     .text.delay_1ms:0000000000000026 .L0 
/var/folders/v8/5w7qrjpd37x60gtz_mwnrxpr0000gn/T//ccWMyxhc.s:63     .text.delay_1ms:0000000000000026 .L0 
/var/folders/v8/5w7qrjpd37x60gtz_mwnrxpr0000gn/T//ccWMyxhc.s:64     .text.delay_1ms:0000000000000026 .L0 
/var/folders/v8/5w7qrjpd37x60gtz_mwnrxpr0000gn/T//ccWMyxhc.s:70     .text.delay_1ms:0000000000000032 .L0 
/var/folders/v8/5w7qrjpd37x60gtz_mwnrxpr0000gn/T//ccWMyxhc.s:75     .text.delay_1ms:000000000000003e .L0 
/var/folders/v8/5w7qrjpd37x60gtz_mwnrxpr0000gn/T//ccWMyxhc.s:81     .text.delay_1ms:000000000000004a .L0 
/var/folders/v8/5w7qrjpd37x60gtz_mwnrxpr0000gn/T//ccWMyxhc.s:82     .text.delay_1ms:000000000000004a .L0 
/var/folders/v8/5w7qrjpd37x60gtz_mwnrxpr0000gn/T//ccWMyxhc.s:83     .text.delay_1ms:000000000000004a .L0 
/var/folders/v8/5w7qrjpd37x60gtz_mwnrxpr0000gn/T//ccWMyxhc.s:88     .text.delay_1ms:0000000000000054 .L0 
/var/folders/v8/5w7qrjpd37x60gtz_mwnrxpr0000gn/T//ccWMyxhc.s:94     .text.delay_1ms:000000000000005c .L0 
/var/folders/v8/5w7qrjpd37x60gtz_mwnrxpr0000gn/T//ccWMyxhc.s:99     .text.delay_1ms:0000000000000068 .L0 
/var/folders/v8/5w7qrjpd37x60gtz_mwnrxpr0000gn/T//ccWMyxhc.s:101    .text.delay_1ms:000000000000006c .L0 
/var/folders/v8/5w7qrjpd37x60gtz_mwnrxpr0000gn/T//ccWMyxhc.s:103    .text.delay_1ms:000000000000006e .L0 
/var/folders/v8/5w7qrjpd37x60gtz_mwnrxpr0000gn/T//ccWMyxhc.s:111    .text.delay_1ms:0000000000000084 .L0 
/var/folders/v8/5w7qrjpd37x60gtz_mwnrxpr0000gn/T//ccWMyxhc.s:113    .text.delay_1ms:0000000000000086 .L0 
/var/folders/v8/5w7qrjpd37x60gtz_mwnrxpr0000gn/T//ccWMyxhc.s:115    .text.delay_1ms:0000000000000088 .L0 
/var/folders/v8/5w7qrjpd37x60gtz_mwnrxpr0000gn/T//ccWMyxhc.s:124    .text.delay_1ms:00000000000000a0 .L0 
/var/folders/v8/5w7qrjpd37x60gtz_mwnrxpr0000gn/T//ccWMyxhc.s:132    .text.delay_1ms:00000000000000b4 .L0 
/var/folders/v8/5w7qrjpd37x60gtz_mwnrxpr0000gn/T//ccWMyxhc.s:133    .text.delay_1ms:00000000000000b6 .L0 
/var/folders/v8/5w7qrjpd37x60gtz_mwnrxpr0000gn/T//ccWMyxhc.s:135    .text.delay_1ms:00000000000000b8 .L0 
/var/folders/v8/5w7qrjpd37x60gtz_mwnrxpr0000gn/T//ccWMyxhc.s:138    .text.delay_1ms:00000000000000ba .L0 
/var/folders/v8/5w7qrjpd37x60gtz_mwnrxpr0000gn/T//ccWMyxhc.s:140    .text.delay_1ms:00000000000000bc .L0 
/var/folders/v8/5w7qrjpd37x60gtz_mwnrxpr0000gn/T//ccWMyxhc.s:142    .text.delay_1ms:00000000000000be .L0 
/var/folders/v8/5w7qrjpd37x60gtz_mwnrxpr0000gn/T//ccWMyxhc.s:144    .text.delay_1ms:00000000000000c0 .L0 
/var/folders/v8/5w7qrjpd37x60gtz_mwnrxpr0000gn/T//ccWMyxhc.s:146    .text.delay_1ms:00000000000000c2 .L0 
/var/folders/v8/5w7qrjpd37x60gtz_mwnrxpr0000gn/T//ccWMyxhc.s:148    .text.delay_1ms:00000000000000c4 .L0 
/var/folders/v8/5w7qrjpd37x60gtz_mwnrxpr0000gn/T//ccWMyxhc.s:150    .text.delay_1ms:00000000000000c6 .L0 
/var/folders/v8/5w7qrjpd37x60gtz_mwnrxpr0000gn/T//ccWMyxhc.s:153    .text.delay_1ms:00000000000000c8 .L0 
/var/folders/v8/5w7qrjpd37x60gtz_mwnrxpr0000gn/T//ccWMyxhc.s:155    .text.delay_1ms:00000000000000ca .L0 
/var/folders/v8/5w7qrjpd37x60gtz_mwnrxpr0000gn/T//ccWMyxhc.s:158    .text.delay_1ms:00000000000000cc .L0 
/var/folders/v8/5w7qrjpd37x60gtz_mwnrxpr0000gn/T//ccWMyxhc.s:160    .text.delay_1ms:00000000000000ce .L0 
/var/folders/v8/5w7qrjpd37x60gtz_mwnrxpr0000gn/T//ccWMyxhc.s:168    .text.millis:0000000000000000 millis
/var/folders/v8/5w7qrjpd37x60gtz_mwnrxpr0000gn/T//ccWMyxhc.s:171    .text.millis:0000000000000000 .L0 
/var/folders/v8/5w7qrjpd37x60gtz_mwnrxpr0000gn/T//ccWMyxhc.s:172    .text.millis:0000000000000000 .L0 
/var/folders/v8/5w7qrjpd37x60gtz_mwnrxpr0000gn/T//ccWMyxhc.s:173    .text.millis:0000000000000000 .L0 
GAS LISTING /var/folders/v8/5w7qrjpd37x60gtz_mwnrxpr0000gn/T//ccWMyxhc.s 			page 11


/var/folders/v8/5w7qrjpd37x60gtz_mwnrxpr0000gn/T//ccWMyxhc.s:174    .text.millis:0000000000000000 .L0 
/var/folders/v8/5w7qrjpd37x60gtz_mwnrxpr0000gn/T//ccWMyxhc.s:176    .text.millis:0000000000000002 .L0 
/var/folders/v8/5w7qrjpd37x60gtz_mwnrxpr0000gn/T//ccWMyxhc.s:180    .text.millis:0000000000000008 .L0 
/var/folders/v8/5w7qrjpd37x60gtz_mwnrxpr0000gn/T//ccWMyxhc.s:181    .text.millis:0000000000000008 .L0 
/var/folders/v8/5w7qrjpd37x60gtz_mwnrxpr0000gn/T//ccWMyxhc.s:182    .text.millis:0000000000000008 .L0 
/var/folders/v8/5w7qrjpd37x60gtz_mwnrxpr0000gn/T//ccWMyxhc.s:184    .text.millis:0000000000000008 .L0 
/var/folders/v8/5w7qrjpd37x60gtz_mwnrxpr0000gn/T//ccWMyxhc.s:187    .text.millis:0000000000000010 .L0 
/var/folders/v8/5w7qrjpd37x60gtz_mwnrxpr0000gn/T//ccWMyxhc.s:188    .text.millis:0000000000000010 .L0 
/var/folders/v8/5w7qrjpd37x60gtz_mwnrxpr0000gn/T//ccWMyxhc.s:196    .text.millis:000000000000002c .L0 
/var/folders/v8/5w7qrjpd37x60gtz_mwnrxpr0000gn/T//ccWMyxhc.s:198    .text.millis:0000000000000030 .L0 
/var/folders/v8/5w7qrjpd37x60gtz_mwnrxpr0000gn/T//ccWMyxhc.s:200    .text.millis:0000000000000032 .L0 
/var/folders/v8/5w7qrjpd37x60gtz_mwnrxpr0000gn/T//ccWMyxhc.s:202    .text.millis:0000000000000036 .L0 
/var/folders/v8/5w7qrjpd37x60gtz_mwnrxpr0000gn/T//ccWMyxhc.s:204    .text.millis:0000000000000038 .L0 
/var/folders/v8/5w7qrjpd37x60gtz_mwnrxpr0000gn/T//ccWMyxhc.s:215    .text.millis:0000000000000058 .L0 
/var/folders/v8/5w7qrjpd37x60gtz_mwnrxpr0000gn/T//ccWMyxhc.s:216    .text.millis:000000000000005a .L0 
/var/folders/v8/5w7qrjpd37x60gtz_mwnrxpr0000gn/T//ccWMyxhc.s:218    .text.millis:000000000000005c .L0 
/var/folders/v8/5w7qrjpd37x60gtz_mwnrxpr0000gn/T//ccWMyxhc.s:220    .text.millis:000000000000005e .L0 
/var/folders/v8/5w7qrjpd37x60gtz_mwnrxpr0000gn/T//ccWMyxhc.s:223    .text.millis:0000000000000060 .L0 
/var/folders/v8/5w7qrjpd37x60gtz_mwnrxpr0000gn/T//ccWMyxhc.s:225    .text.millis:0000000000000062 .L0 
/var/folders/v8/5w7qrjpd37x60gtz_mwnrxpr0000gn/T//ccWMyxhc.s:232    .text.delay_1us:0000000000000000 delay_1us
/var/folders/v8/5w7qrjpd37x60gtz_mwnrxpr0000gn/T//ccWMyxhc.s:235    .text.delay_1us:0000000000000000 .L0 
/var/folders/v8/5w7qrjpd37x60gtz_mwnrxpr0000gn/T//ccWMyxhc.s:237    .text.delay_1us:0000000000000000 .L0 
/var/folders/v8/5w7qrjpd37x60gtz_mwnrxpr0000gn/T//ccWMyxhc.s:238    .text.delay_1us:0000000000000000 .L0 
/var/folders/v8/5w7qrjpd37x60gtz_mwnrxpr0000gn/T//ccWMyxhc.s:239    .text.delay_1us:0000000000000000 .L0 
/var/folders/v8/5w7qrjpd37x60gtz_mwnrxpr0000gn/T//ccWMyxhc.s:240    .text.delay_1us:0000000000000000 .L0 
/var/folders/v8/5w7qrjpd37x60gtz_mwnrxpr0000gn/T//ccWMyxhc.s:242    .text.delay_1us:0000000000000002 .L0 
/var/folders/v8/5w7qrjpd37x60gtz_mwnrxpr0000gn/T//ccWMyxhc.s:254    .text.delay_1us:0000000000000018 .L0 
/var/folders/v8/5w7qrjpd37x60gtz_mwnrxpr0000gn/T//ccWMyxhc.s:255    .text.delay_1us:0000000000000018 .L0 
/var/folders/v8/5w7qrjpd37x60gtz_mwnrxpr0000gn/T//ccWMyxhc.s:256    .text.delay_1us:0000000000000018 .L0 
/var/folders/v8/5w7qrjpd37x60gtz_mwnrxpr0000gn/T//ccWMyxhc.s:257    .text.delay_1us:0000000000000018 .L0 
/var/folders/v8/5w7qrjpd37x60gtz_mwnrxpr0000gn/T//ccWMyxhc.s:258    .text.delay_1us:0000000000000018 .L0 
/var/folders/v8/5w7qrjpd37x60gtz_mwnrxpr0000gn/T//ccWMyxhc.s:259    .text.delay_1us:0000000000000018 .L0 
/var/folders/v8/5w7qrjpd37x60gtz_mwnrxpr0000gn/T//ccWMyxhc.s:260    .text.delay_1us:0000000000000018 .L0 
/var/folders/v8/5w7qrjpd37x60gtz_mwnrxpr0000gn/T//ccWMyxhc.s:261    .text.delay_1us:0000000000000018 .L0 
/var/folders/v8/5w7qrjpd37x60gtz_mwnrxpr0000gn/T//ccWMyxhc.s:262    .text.delay_1us:0000000000000018 .L0 
/var/folders/v8/5w7qrjpd37x60gtz_mwnrxpr0000gn/T//ccWMyxhc.s:263    .text.delay_1us:0000000000000018 .L0 
/var/folders/v8/5w7qrjpd37x60gtz_mwnrxpr0000gn/T//ccWMyxhc.s:264    .text.delay_1us:0000000000000018 .L0 
/var/folders/v8/5w7qrjpd37x60gtz_mwnrxpr0000gn/T//ccWMyxhc.s:266    .text.delay_1us:0000000000000018 .L0 
/var/folders/v8/5w7qrjpd37x60gtz_mwnrxpr0000gn/T//ccWMyxhc.s:268    .text.delay_1us:000000000000001a .L0 
/var/folders/v8/5w7qrjpd37x60gtz_mwnrxpr0000gn/T//ccWMyxhc.s:275    .text.delay_1us:0000000000000026 .L0 
/var/folders/v8/5w7qrjpd37x60gtz_mwnrxpr0000gn/T//ccWMyxhc.s:276    .text.delay_1us:0000000000000026 .L0 
/var/folders/v8/5w7qrjpd37x60gtz_mwnrxpr0000gn/T//ccWMyxhc.s:277    .text.delay_1us:0000000000000026 .L0 
/var/folders/v8/5w7qrjpd37x60gtz_mwnrxpr0000gn/T//ccWMyxhc.s:283    .text.delay_1us:0000000000000032 .L0 
/var/folders/v8/5w7qrjpd37x60gtz_mwnrxpr0000gn/T//ccWMyxhc.s:288    .text.delay_1us:000000000000003e .L0 
/var/folders/v8/5w7qrjpd37x60gtz_mwnrxpr0000gn/T//ccWMyxhc.s:294    .text.delay_1us:000000000000004a .L0 
/var/folders/v8/5w7qrjpd37x60gtz_mwnrxpr0000gn/T//ccWMyxhc.s:295    .text.delay_1us:000000000000004a .L0 
/var/folders/v8/5w7qrjpd37x60gtz_mwnrxpr0000gn/T//ccWMyxhc.s:296    .text.delay_1us:000000000000004a .L0 
/var/folders/v8/5w7qrjpd37x60gtz_mwnrxpr0000gn/T//ccWMyxhc.s:301    .text.delay_1us:0000000000000054 .L0 
/var/folders/v8/5w7qrjpd37x60gtz_mwnrxpr0000gn/T//ccWMyxhc.s:307    .text.delay_1us:000000000000005c .L0 
/var/folders/v8/5w7qrjpd37x60gtz_mwnrxpr0000gn/T//ccWMyxhc.s:312    .text.delay_1us:0000000000000068 .L0 
/var/folders/v8/5w7qrjpd37x60gtz_mwnrxpr0000gn/T//ccWMyxhc.s:314    .text.delay_1us:000000000000006c .L0 
/var/folders/v8/5w7qrjpd37x60gtz_mwnrxpr0000gn/T//ccWMyxhc.s:316    .text.delay_1us:000000000000006e .L0 
/var/folders/v8/5w7qrjpd37x60gtz_mwnrxpr0000gn/T//ccWMyxhc.s:324    .text.delay_1us:0000000000000084 .L0 
/var/folders/v8/5w7qrjpd37x60gtz_mwnrxpr0000gn/T//ccWMyxhc.s:326    .text.delay_1us:0000000000000086 .L0 
/var/folders/v8/5w7qrjpd37x60gtz_mwnrxpr0000gn/T//ccWMyxhc.s:328    .text.delay_1us:0000000000000088 .L0 
/var/folders/v8/5w7qrjpd37x60gtz_mwnrxpr0000gn/T//ccWMyxhc.s:337    .text.delay_1us:00000000000000a0 .L0 
/var/folders/v8/5w7qrjpd37x60gtz_mwnrxpr0000gn/T//ccWMyxhc.s:345    .text.delay_1us:00000000000000b4 .L0 
GAS LISTING /var/folders/v8/5w7qrjpd37x60gtz_mwnrxpr0000gn/T//ccWMyxhc.s 			page 12


/var/folders/v8/5w7qrjpd37x60gtz_mwnrxpr0000gn/T//ccWMyxhc.s:346    .text.delay_1us:00000000000000b6 .L0 
/var/folders/v8/5w7qrjpd37x60gtz_mwnrxpr0000gn/T//ccWMyxhc.s:348    .text.delay_1us:00000000000000b8 .L0 
/var/folders/v8/5w7qrjpd37x60gtz_mwnrxpr0000gn/T//ccWMyxhc.s:351    .text.delay_1us:00000000000000ba .L0 
/var/folders/v8/5w7qrjpd37x60gtz_mwnrxpr0000gn/T//ccWMyxhc.s:353    .text.delay_1us:00000000000000bc .L0 
/var/folders/v8/5w7qrjpd37x60gtz_mwnrxpr0000gn/T//ccWMyxhc.s:355    .text.delay_1us:00000000000000be .L0 
/var/folders/v8/5w7qrjpd37x60gtz_mwnrxpr0000gn/T//ccWMyxhc.s:357    .text.delay_1us:00000000000000c0 .L0 
/var/folders/v8/5w7qrjpd37x60gtz_mwnrxpr0000gn/T//ccWMyxhc.s:359    .text.delay_1us:00000000000000c2 .L0 
/var/folders/v8/5w7qrjpd37x60gtz_mwnrxpr0000gn/T//ccWMyxhc.s:361    .text.delay_1us:00000000000000c4 .L0 
/var/folders/v8/5w7qrjpd37x60gtz_mwnrxpr0000gn/T//ccWMyxhc.s:363    .text.delay_1us:00000000000000c6 .L0 
/var/folders/v8/5w7qrjpd37x60gtz_mwnrxpr0000gn/T//ccWMyxhc.s:366    .text.delay_1us:00000000000000c8 .L0 
/var/folders/v8/5w7qrjpd37x60gtz_mwnrxpr0000gn/T//ccWMyxhc.s:368    .text.delay_1us:00000000000000ca .L0 
/var/folders/v8/5w7qrjpd37x60gtz_mwnrxpr0000gn/T//ccWMyxhc.s:371    .text.delay_1us:00000000000000cc .L0 
/var/folders/v8/5w7qrjpd37x60gtz_mwnrxpr0000gn/T//ccWMyxhc.s:373    .text.delay_1us:00000000000000ce .L0 
/var/folders/v8/5w7qrjpd37x60gtz_mwnrxpr0000gn/T//ccWMyxhc.s:164    .text.delay_1ms:00000000000000ce .L0 
/var/folders/v8/5w7qrjpd37x60gtz_mwnrxpr0000gn/T//ccWMyxhc.s:228    .text.millis:0000000000000062 .L0 
/var/folders/v8/5w7qrjpd37x60gtz_mwnrxpr0000gn/T//ccWMyxhc.s:376    .text.delay_1us:00000000000000ce .L0 
                     .debug_frame:0000000000000000 .L0 
/var/folders/v8/5w7qrjpd37x60gtz_mwnrxpr0000gn/T//ccWMyxhc.s:378    .rodata.delay_1ms.cst8:0000000000000000 .LC0
/var/folders/v8/5w7qrjpd37x60gtz_mwnrxpr0000gn/T//ccWMyxhc.s:72     .text.delay_1ms:000000000000003a .L3
/var/folders/v8/5w7qrjpd37x60gtz_mwnrxpr0000gn/T//ccWMyxhc.s:60     .text.delay_1ms:0000000000000026 .L2
/var/folders/v8/5w7qrjpd37x60gtz_mwnrxpr0000gn/T//ccWMyxhc.s:79     .text.delay_1ms:000000000000004a .L4
/var/folders/v8/5w7qrjpd37x60gtz_mwnrxpr0000gn/T//ccWMyxhc.s:383    .rodata.delay_1us.cst8:0000000000000000 .LC1
/var/folders/v8/5w7qrjpd37x60gtz_mwnrxpr0000gn/T//ccWMyxhc.s:285    .text.delay_1us:000000000000003a .L12
/var/folders/v8/5w7qrjpd37x60gtz_mwnrxpr0000gn/T//ccWMyxhc.s:273    .text.delay_1us:0000000000000026 .L11
/var/folders/v8/5w7qrjpd37x60gtz_mwnrxpr0000gn/T//ccWMyxhc.s:292    .text.delay_1us:000000000000004a .L13
/var/folders/v8/5w7qrjpd37x60gtz_mwnrxpr0000gn/T//ccWMyxhc.s:615    .debug_abbrev:0000000000000000 .Ldebug_abbrev0
/var/folders/v8/5w7qrjpd37x60gtz_mwnrxpr0000gn/T//ccWMyxhc.s:1055   .debug_str:00000000000000bc .LASF20
/var/folders/v8/5w7qrjpd37x60gtz_mwnrxpr0000gn/T//ccWMyxhc.s:1053   .debug_str:00000000000000a6 .LASF21
/var/folders/v8/5w7qrjpd37x60gtz_mwnrxpr0000gn/T//ccWMyxhc.s:1075   .debug_str:00000000000001a7 .LASF22
/var/folders/v8/5w7qrjpd37x60gtz_mwnrxpr0000gn/T//ccWMyxhc.s:1013   .debug_ranges:0000000000000000 .Ldebug_ranges0
/var/folders/v8/5w7qrjpd37x60gtz_mwnrxpr0000gn/T//ccWMyxhc.s:1023   .debug_line:0000000000000000 .Ldebug_line0
/var/folders/v8/5w7qrjpd37x60gtz_mwnrxpr0000gn/T//ccWMyxhc.s:1027   .debug_str:000000000000000e .LASF0
/var/folders/v8/5w7qrjpd37x60gtz_mwnrxpr0000gn/T//ccWMyxhc.s:1063   .debug_str:0000000000000160 .LASF1
/var/folders/v8/5w7qrjpd37x60gtz_mwnrxpr0000gn/T//ccWMyxhc.s:1043   .debug_str:0000000000000066 .LASF2
/var/folders/v8/5w7qrjpd37x60gtz_mwnrxpr0000gn/T//ccWMyxhc.s:1071   .debug_str:0000000000000191 .LASF3
/var/folders/v8/5w7qrjpd37x60gtz_mwnrxpr0000gn/T//ccWMyxhc.s:1061   .debug_str:000000000000014d .LASF4
/var/folders/v8/5w7qrjpd37x60gtz_mwnrxpr0000gn/T//ccWMyxhc.s:1065   .debug_str:000000000000016c .LASF5
/var/folders/v8/5w7qrjpd37x60gtz_mwnrxpr0000gn/T//ccWMyxhc.s:1031   .debug_str:0000000000000021 .LASF8
/var/folders/v8/5w7qrjpd37x60gtz_mwnrxpr0000gn/T//ccWMyxhc.s:1051   .debug_str:0000000000000094 .LASF6
/var/folders/v8/5w7qrjpd37x60gtz_mwnrxpr0000gn/T//ccWMyxhc.s:1025   .debug_str:0000000000000000 .LASF7
/var/folders/v8/5w7qrjpd37x60gtz_mwnrxpr0000gn/T//ccWMyxhc.s:1057   .debug_str:0000000000000136 .LASF9
/var/folders/v8/5w7qrjpd37x60gtz_mwnrxpr0000gn/T//ccWMyxhc.s:1037   .debug_str:000000000000003c .LASF10
/var/folders/v8/5w7qrjpd37x60gtz_mwnrxpr0000gn/T//ccWMyxhc.s:1045   .debug_str:0000000000000074 .LASF11
/var/folders/v8/5w7qrjpd37x60gtz_mwnrxpr0000gn/T//ccWMyxhc.s:1041   .debug_str:000000000000005d .LASF12
/var/folders/v8/5w7qrjpd37x60gtz_mwnrxpr0000gn/T//ccWMyxhc.s:1047   .debug_str:000000000000007d .LASF23
/var/folders/v8/5w7qrjpd37x60gtz_mwnrxpr0000gn/T//ccWMyxhc.s:1069   .debug_str:0000000000000185 .LASF13
/var/folders/v8/5w7qrjpd37x60gtz_mwnrxpr0000gn/T//ccWMyxhc.s:1039   .debug_str:0000000000000053 .LASF16
/var/folders/v8/5w7qrjpd37x60gtz_mwnrxpr0000gn/T//ccWMyxhc.s:233    .text.delay_1us:0000000000000000 .LFB4
/var/folders/v8/5w7qrjpd37x60gtz_mwnrxpr0000gn/T//ccWMyxhc.s:374    .text.delay_1us:00000000000000ce .LFE4
/var/folders/v8/5w7qrjpd37x60gtz_mwnrxpr0000gn/T//ccWMyxhc.s:846    .debug_loc:0000000000000000 .LLST6
/var/folders/v8/5w7qrjpd37x60gtz_mwnrxpr0000gn/T//ccWMyxhc.s:1029   .debug_str:000000000000001b .LASF18
/var/folders/v8/5w7qrjpd37x60gtz_mwnrxpr0000gn/T//ccWMyxhc.s:864    .debug_loc:000000000000002c .LLST7
/var/folders/v8/5w7qrjpd37x60gtz_mwnrxpr0000gn/T//ccWMyxhc.s:1059   .debug_str:0000000000000141 .LASF14
/var/folders/v8/5w7qrjpd37x60gtz_mwnrxpr0000gn/T//ccWMyxhc.s:882    .debug_loc:0000000000000058 .LLST8
/var/folders/v8/5w7qrjpd37x60gtz_mwnrxpr0000gn/T//ccWMyxhc.s:1073   .debug_str:000000000000019b .LASF19
/var/folders/v8/5w7qrjpd37x60gtz_mwnrxpr0000gn/T//ccWMyxhc.s:894    .debug_loc:0000000000000070 .LLST9
/var/folders/v8/5w7qrjpd37x60gtz_mwnrxpr0000gn/T//ccWMyxhc.s:269    .text.delay_1us:0000000000000022 .LVL25
GAS LISTING /var/folders/v8/5w7qrjpd37x60gtz_mwnrxpr0000gn/T//ccWMyxhc.s 			page 13


/var/folders/v8/5w7qrjpd37x60gtz_mwnrxpr0000gn/T//ccWMyxhc.s:278    .text.delay_1us:000000000000002e .LVL27
/var/folders/v8/5w7qrjpd37x60gtz_mwnrxpr0000gn/T//ccWMyxhc.s:297    .text.delay_1us:0000000000000052 .LVL30
/var/folders/v8/5w7qrjpd37x60gtz_mwnrxpr0000gn/T//ccWMyxhc.s:1049   .debug_str:000000000000008d .LASF24
/var/folders/v8/5w7qrjpd37x60gtz_mwnrxpr0000gn/T//ccWMyxhc.s:169    .text.millis:0000000000000000 .LFB3
/var/folders/v8/5w7qrjpd37x60gtz_mwnrxpr0000gn/T//ccWMyxhc.s:226    .text.millis:0000000000000062 .LFE3
/var/folders/v8/5w7qrjpd37x60gtz_mwnrxpr0000gn/T//ccWMyxhc.s:906    .debug_loc:0000000000000088 .LLST4
/var/folders/v8/5w7qrjpd37x60gtz_mwnrxpr0000gn/T//ccWMyxhc.s:1035   .debug_str:0000000000000036 .LASF15
/var/folders/v8/5w7qrjpd37x60gtz_mwnrxpr0000gn/T//ccWMyxhc.s:924    .debug_loc:00000000000000b4 .LLST5
/var/folders/v8/5w7qrjpd37x60gtz_mwnrxpr0000gn/T//ccWMyxhc.s:185    .text.millis:0000000000000010 .LVL18
/var/folders/v8/5w7qrjpd37x60gtz_mwnrxpr0000gn/T//ccWMyxhc.s:1033   .debug_str:000000000000002c .LASF17
/var/folders/v8/5w7qrjpd37x60gtz_mwnrxpr0000gn/T//ccWMyxhc.s:19     .text.delay_1ms:0000000000000000 .LFB2
/var/folders/v8/5w7qrjpd37x60gtz_mwnrxpr0000gn/T//ccWMyxhc.s:161    .text.delay_1ms:00000000000000ce .LFE2
/var/folders/v8/5w7qrjpd37x60gtz_mwnrxpr0000gn/T//ccWMyxhc.s:936    .debug_loc:00000000000000cc .LLST0
/var/folders/v8/5w7qrjpd37x60gtz_mwnrxpr0000gn/T//ccWMyxhc.s:954    .debug_loc:00000000000000f8 .LLST1
/var/folders/v8/5w7qrjpd37x60gtz_mwnrxpr0000gn/T//ccWMyxhc.s:972    .debug_loc:0000000000000124 .LLST2
/var/folders/v8/5w7qrjpd37x60gtz_mwnrxpr0000gn/T//ccWMyxhc.s:984    .debug_loc:000000000000013c .LLST3
/var/folders/v8/5w7qrjpd37x60gtz_mwnrxpr0000gn/T//ccWMyxhc.s:56     .text.delay_1ms:0000000000000022 .LVL1
/var/folders/v8/5w7qrjpd37x60gtz_mwnrxpr0000gn/T//ccWMyxhc.s:65     .text.delay_1ms:000000000000002e .LVL3
/var/folders/v8/5w7qrjpd37x60gtz_mwnrxpr0000gn/T//ccWMyxhc.s:84     .text.delay_1ms:0000000000000052 .LVL6
/var/folders/v8/5w7qrjpd37x60gtz_mwnrxpr0000gn/T//ccWMyxhc.s:1067   .debug_str:0000000000000175 .LASF25
/var/folders/v8/5w7qrjpd37x60gtz_mwnrxpr0000gn/T//ccWMyxhc.s:241    .text.delay_1us:0000000000000002 .LCFI4
/var/folders/v8/5w7qrjpd37x60gtz_mwnrxpr0000gn/T//ccWMyxhc.s:370    .text.delay_1us:00000000000000cc .LCFI5
/var/folders/v8/5w7qrjpd37x60gtz_mwnrxpr0000gn/T//ccWMyxhc.s:236    .text.delay_1us:0000000000000000 .LVL24
/var/folders/v8/5w7qrjpd37x60gtz_mwnrxpr0000gn/T//ccWMyxhc.s:364    .text.delay_1us:00000000000000c6 .LVL41
/var/folders/v8/5w7qrjpd37x60gtz_mwnrxpr0000gn/T//ccWMyxhc.s:281    .text.delay_1us:0000000000000032 .LVL28
/var/folders/v8/5w7qrjpd37x60gtz_mwnrxpr0000gn/T//ccWMyxhc.s:349    .text.delay_1us:00000000000000b8 .LVL40
/var/folders/v8/5w7qrjpd37x60gtz_mwnrxpr0000gn/T//ccWMyxhc.s:272    .text.delay_1us:0000000000000026 .LVL26
/var/folders/v8/5w7qrjpd37x60gtz_mwnrxpr0000gn/T//ccWMyxhc.s:289    .text.delay_1us:0000000000000042 .LVL29
/var/folders/v8/5w7qrjpd37x60gtz_mwnrxpr0000gn/T//ccWMyxhc.s:175    .text.millis:0000000000000002 .LCFI2
/var/folders/v8/5w7qrjpd37x60gtz_mwnrxpr0000gn/T//ccWMyxhc.s:222    .text.millis:0000000000000060 .LCFI3
/var/folders/v8/5w7qrjpd37x60gtz_mwnrxpr0000gn/T//ccWMyxhc.s:189    .text.millis:0000000000000018 .LVL19
/var/folders/v8/5w7qrjpd37x60gtz_mwnrxpr0000gn/T//ccWMyxhc.s:28     .text.delay_1ms:0000000000000002 .LCFI0
/var/folders/v8/5w7qrjpd37x60gtz_mwnrxpr0000gn/T//ccWMyxhc.s:157    .text.delay_1ms:00000000000000cc .LCFI1
/var/folders/v8/5w7qrjpd37x60gtz_mwnrxpr0000gn/T//ccWMyxhc.s:23     .text.delay_1ms:0000000000000000 .LVL0
/var/folders/v8/5w7qrjpd37x60gtz_mwnrxpr0000gn/T//ccWMyxhc.s:151    .text.delay_1ms:00000000000000c6 .LVL17
/var/folders/v8/5w7qrjpd37x60gtz_mwnrxpr0000gn/T//ccWMyxhc.s:68     .text.delay_1ms:0000000000000032 .LVL4
/var/folders/v8/5w7qrjpd37x60gtz_mwnrxpr0000gn/T//ccWMyxhc.s:136    .text.delay_1ms:00000000000000b8 .LVL16
/var/folders/v8/5w7qrjpd37x60gtz_mwnrxpr0000gn/T//ccWMyxhc.s:59     .text.delay_1ms:0000000000000026 .LVL2
/var/folders/v8/5w7qrjpd37x60gtz_mwnrxpr0000gn/T//ccWMyxhc.s:76     .text.delay_1ms:0000000000000042 .LVL5
/var/folders/v8/5w7qrjpd37x60gtz_mwnrxpr0000gn/T//ccWMyxhc.s:393    .debug_info:0000000000000000 .Ldebug_info0

UNDEFINED SYMBOLS
__floatundidf
__floatunsidf
__divdf3
__muldf3
__ltdf2
get_timer_value
SystemCoreClock
__fixdfsi
