GAS LISTING /var/folders/v8/5w7qrjpd37x60gtz_mwnrxpr0000gn/T//ccWSpK0t.s 			page 1


   1              		.file	"handlers.c"
   2              		.option nopic
   3              		.attribute arch, "rv32i2p0_m2p0_a2p0_c2p0"
   4              		.attribute unaligned_access, 0
   5              		.attribute stack_align, 16
   6              		.text
   7              	.Ltext0:
   8              		.cfi_sections	.debug_frame
   9              		.section	.text.handle_nmi,"ax",@progbits
  10              		.align	1
  11              		.weak	handle_nmi
  13              	handle_nmi:
  14              	.LFB5:
  15              		.file 1 "../../firmware/RISCV/env_Eclipse/handlers.c"
   1:../../firmware/RISCV/env_Eclipse/handlers.c **** //See LICENSE for license details.
   2:../../firmware/RISCV/env_Eclipse/handlers.c **** #include <stdint.h>
   3:../../firmware/RISCV/env_Eclipse/handlers.c **** #include <stdio.h>
   4:../../firmware/RISCV/env_Eclipse/handlers.c **** #include <unistd.h>
   5:../../firmware/RISCV/env_Eclipse/handlers.c **** #include "riscv_encoding.h"
   6:../../firmware/RISCV/env_Eclipse/handlers.c **** #include "n200_func.h"
   7:../../firmware/RISCV/env_Eclipse/handlers.c **** 
   8:../../firmware/RISCV/env_Eclipse/handlers.c **** __attribute__((weak)) uintptr_t handle_nmi()
   9:../../firmware/RISCV/env_Eclipse/handlers.c **** {
  16              		.loc 1 9 1
  17              		.cfi_startproc
  10:../../firmware/RISCV/env_Eclipse/handlers.c ****   write(1, "nmi\n", 5);
  18              		.loc 1 10 3
  19 0000 B7050000 		lui	a1,%hi(.LC0)
   9:../../firmware/RISCV/env_Eclipse/handlers.c ****   write(1, "nmi\n", 5);
  20              		.loc 1 9 1 is_stmt 0
  21 0004 4111     		addi	sp,sp,-16
  22              	.LCFI0:
  23              		.cfi_def_cfa_offset 16
  24              		.loc 1 10 3
  25 0006 1546     		li	a2,5
  26 0008 93850500 		addi	a1,a1,%lo(.LC0)
  27 000c 0545     		li	a0,1
   9:../../firmware/RISCV/env_Eclipse/handlers.c ****   write(1, "nmi\n", 5);
  28              		.loc 1 9 1
  29 000e 06C6     		sw	ra,12(sp)
  30              		.cfi_offset 1, -4
  31              		.loc 1 10 3
  32 0010 97000000 		call	write
  32      E7800000 
  33              	.LVL0:
  11:../../firmware/RISCV/env_Eclipse/handlers.c ****   _exit(1);
  34              		.loc 1 11 3 is_stmt 1
  35 0018 0545     		li	a0,1
  36 001a 97000000 		call	_exit
  36      E7800000 
  37              	.LVL1:
  38              		.cfi_endproc
  39              	.LFE5:
  41              		.section	.text.handle_trap,"ax",@progbits
  42              		.align	1
  43              		.weak	handle_trap
  45              	handle_trap:
GAS LISTING /var/folders/v8/5w7qrjpd37x60gtz_mwnrxpr0000gn/T//ccWSpK0t.s 			page 2


  46              	.LFB6:
  12:../../firmware/RISCV/env_Eclipse/handlers.c ****   return 0;
  13:../../firmware/RISCV/env_Eclipse/handlers.c **** }
  14:../../firmware/RISCV/env_Eclipse/handlers.c **** 
  15:../../firmware/RISCV/env_Eclipse/handlers.c **** 
  16:../../firmware/RISCV/env_Eclipse/handlers.c **** __attribute__((weak)) uintptr_t handle_trap(uintptr_t mcause, uintptr_t sp)
  17:../../firmware/RISCV/env_Eclipse/handlers.c **** {
  47              		.loc 1 17 1
  48              		.cfi_startproc
  49              	.LVL2:
  18:../../firmware/RISCV/env_Eclipse/handlers.c ****   if((mcause & 0xFFF) == 0xFFF) {
  50              		.loc 1 18 3
  17:../../firmware/RISCV/env_Eclipse/handlers.c ****   if((mcause & 0xFFF) == 0xFFF) {
  51              		.loc 1 17 1 is_stmt 0
  52 0000 4111     		addi	sp,sp,-16
  53              	.LCFI1:
  54              		.cfi_def_cfa_offset 16
  55              		.loc 1 18 14
  56 0002 9347F5FF 		not	a5,a0
  17:../../firmware/RISCV/env_Eclipse/handlers.c ****   if((mcause & 0xFFF) == 0xFFF) {
  57              		.loc 1 17 1
  58 0006 22C4     		sw	s0,8(sp)
  59 0008 06C6     		sw	ra,12(sp)
  60              		.cfi_offset 8, -8
  61              		.cfi_offset 1, -4
  62              		.loc 1 18 5
  63 000a 13974701 		slli	a4,a5,20
  17:../../firmware/RISCV/env_Eclipse/handlers.c ****   if((mcause & 0xFFF) == 0xFFF) {
  64              		.loc 1 17 1
  65 000e 2A84     		mv	s0,a0
  66              		.loc 1 18 5
  67 0010 05C3     		beq	a4,zero,.L7
  68              	.LVL3:
  69              	.L5:
  19:../../firmware/RISCV/env_Eclipse/handlers.c ****       handle_nmi();
  20:../../firmware/RISCV/env_Eclipse/handlers.c ****   }
  21:../../firmware/RISCV/env_Eclipse/handlers.c ****   write(1, "trap\n", 5);
  70              		.loc 1 21 3 is_stmt 1
  71 0012 B7050000 		lui	a1,%hi(.LC1)
  72 0016 1546     		li	a2,5
  73 0018 93850500 		addi	a1,a1,%lo(.LC1)
  74 001c 0545     		li	a0,1
  75 001e 97000000 		call	write
  75      E7800000 
  76              	.LVL4:
  22:../../firmware/RISCV/env_Eclipse/handlers.c ****   //printf("In trap handler, the mcause is %d\n", mcause);
  23:../../firmware/RISCV/env_Eclipse/handlers.c ****   //printf("In trap handler, the mepc is 0x%x\n", read_csr(mepc));
  24:../../firmware/RISCV/env_Eclipse/handlers.c ****   //printf("In trap handler, the mtval is 0x%x\n", read_csr(mbadaddr));
  25:../../firmware/RISCV/env_Eclipse/handlers.c ****   _exit(mcause);
  77              		.loc 1 25 3
  78 0026 2285     		mv	a0,s0
  79 0028 97000000 		call	_exit
  79      E7800000 
  80              	.LVL5:
  81              	.L7:
  19:../../firmware/RISCV/env_Eclipse/handlers.c ****       handle_nmi();
  82              		.loc 1 19 7
GAS LISTING /var/folders/v8/5w7qrjpd37x60gtz_mwnrxpr0000gn/T//ccWSpK0t.s 			page 3


  83 0030 97000000 		call	handle_nmi
  83      E7800000 
  84              	.LVL6:
  85 0038 E9BF     		j	.L5
  86              		.cfi_endproc
  87              	.LFE6:
  89              		.section	.rodata.handle_nmi.str1.4,"aMS",@progbits,1
  90              		.align	2
  91              	.LC0:
  92 0000 6E6D690A 		.string	"nmi\n"
  92      00
  93              		.section	.rodata.handle_trap.str1.4,"aMS",@progbits,1
  94              		.align	2
  95              	.LC1:
  96 0000 74726170 		.string	"trap\n"
  96      0A00
  97              		.text
  98              	.Letext0:
  99              		.file 2 "/Users/gulda/Desktop/toolchain-gd32v-osx/compiler/riscv64-unknown-elf/include/machine/_de
 100              		.file 3 "/Users/gulda/Desktop/toolchain-gd32v-osx/compiler/riscv64-unknown-elf/include/sys/_stdint
 101              		.file 4 "/Users/gulda/Desktop/toolchain-gd32v-osx/compiler/lib/gcc/riscv64-unknown-elf/8.3.0/inclu
 102              		.file 5 "/Users/gulda/Desktop/toolchain-gd32v-osx/compiler/riscv64-unknown-elf/include/sys/_types.
 103              		.file 6 "/Users/gulda/Desktop/toolchain-gd32v-osx/compiler/riscv64-unknown-elf/include/sys/reent.h
 104              		.file 7 "/Users/gulda/Desktop/toolchain-gd32v-osx/compiler/riscv64-unknown-elf/include/sys/lock.h"
 105              		.file 8 "/Users/gulda/Desktop/toolchain-gd32v-osx/compiler/riscv64-unknown-elf/include/sys/unistd.
GAS LISTING /var/folders/v8/5w7qrjpd37x60gtz_mwnrxpr0000gn/T//ccWSpK0t.s 			page 4


DEFINED SYMBOLS
                            *ABS*:0000000000000000 handlers.c
/var/folders/v8/5w7qrjpd37x60gtz_mwnrxpr0000gn/T//ccWSpK0t.s:13     .text.handle_nmi:0000000000000000 handle_nmi
/var/folders/v8/5w7qrjpd37x60gtz_mwnrxpr0000gn/T//ccWSpK0t.s:17     .text.handle_nmi:0000000000000000 .L0 
/var/folders/v8/5w7qrjpd37x60gtz_mwnrxpr0000gn/T//ccWSpK0t.s:18     .text.handle_nmi:0000000000000000 .L0 
/var/folders/v8/5w7qrjpd37x60gtz_mwnrxpr0000gn/T//ccWSpK0t.s:19     .text.handle_nmi:0000000000000000 .L0 
/var/folders/v8/5w7qrjpd37x60gtz_mwnrxpr0000gn/T//ccWSpK0t.s:21     .text.handle_nmi:0000000000000004 .L0 
/var/folders/v8/5w7qrjpd37x60gtz_mwnrxpr0000gn/T//ccWSpK0t.s:23     .text.handle_nmi:0000000000000006 .L0 
/var/folders/v8/5w7qrjpd37x60gtz_mwnrxpr0000gn/T//ccWSpK0t.s:25     .text.handle_nmi:0000000000000006 .L0 
/var/folders/v8/5w7qrjpd37x60gtz_mwnrxpr0000gn/T//ccWSpK0t.s:29     .text.handle_nmi:000000000000000e .L0 
/var/folders/v8/5w7qrjpd37x60gtz_mwnrxpr0000gn/T//ccWSpK0t.s:30     .text.handle_nmi:0000000000000010 .L0 
/var/folders/v8/5w7qrjpd37x60gtz_mwnrxpr0000gn/T//ccWSpK0t.s:32     .text.handle_nmi:0000000000000010 .L0 
/var/folders/v8/5w7qrjpd37x60gtz_mwnrxpr0000gn/T//ccWSpK0t.s:35     .text.handle_nmi:0000000000000018 .L0 
/var/folders/v8/5w7qrjpd37x60gtz_mwnrxpr0000gn/T//ccWSpK0t.s:38     .text.handle_nmi:0000000000000022 .L0 
/var/folders/v8/5w7qrjpd37x60gtz_mwnrxpr0000gn/T//ccWSpK0t.s:45     .text.handle_trap:0000000000000000 handle_trap
/var/folders/v8/5w7qrjpd37x60gtz_mwnrxpr0000gn/T//ccWSpK0t.s:48     .text.handle_trap:0000000000000000 .L0 
/var/folders/v8/5w7qrjpd37x60gtz_mwnrxpr0000gn/T//ccWSpK0t.s:50     .text.handle_trap:0000000000000000 .L0 
/var/folders/v8/5w7qrjpd37x60gtz_mwnrxpr0000gn/T//ccWSpK0t.s:51     .text.handle_trap:0000000000000000 .L0 
/var/folders/v8/5w7qrjpd37x60gtz_mwnrxpr0000gn/T//ccWSpK0t.s:52     .text.handle_trap:0000000000000000 .L0 
/var/folders/v8/5w7qrjpd37x60gtz_mwnrxpr0000gn/T//ccWSpK0t.s:54     .text.handle_trap:0000000000000002 .L0 
/var/folders/v8/5w7qrjpd37x60gtz_mwnrxpr0000gn/T//ccWSpK0t.s:56     .text.handle_trap:0000000000000002 .L0 
/var/folders/v8/5w7qrjpd37x60gtz_mwnrxpr0000gn/T//ccWSpK0t.s:58     .text.handle_trap:0000000000000006 .L0 
/var/folders/v8/5w7qrjpd37x60gtz_mwnrxpr0000gn/T//ccWSpK0t.s:60     .text.handle_trap:000000000000000a .L0 
/var/folders/v8/5w7qrjpd37x60gtz_mwnrxpr0000gn/T//ccWSpK0t.s:61     .text.handle_trap:000000000000000a .L0 
/var/folders/v8/5w7qrjpd37x60gtz_mwnrxpr0000gn/T//ccWSpK0t.s:63     .text.handle_trap:000000000000000a .L0 
/var/folders/v8/5w7qrjpd37x60gtz_mwnrxpr0000gn/T//ccWSpK0t.s:65     .text.handle_trap:000000000000000e .L0 
/var/folders/v8/5w7qrjpd37x60gtz_mwnrxpr0000gn/T//ccWSpK0t.s:67     .text.handle_trap:0000000000000010 .L0 
/var/folders/v8/5w7qrjpd37x60gtz_mwnrxpr0000gn/T//ccWSpK0t.s:71     .text.handle_trap:0000000000000012 .L0 
/var/folders/v8/5w7qrjpd37x60gtz_mwnrxpr0000gn/T//ccWSpK0t.s:78     .text.handle_trap:0000000000000026 .L0 
/var/folders/v8/5w7qrjpd37x60gtz_mwnrxpr0000gn/T//ccWSpK0t.s:83     .text.handle_trap:0000000000000030 .L0 
/var/folders/v8/5w7qrjpd37x60gtz_mwnrxpr0000gn/T//ccWSpK0t.s:86     .text.handle_trap:000000000000003a .L0 
/var/folders/v8/5w7qrjpd37x60gtz_mwnrxpr0000gn/T//ccWSpK0t.s:41     .text.handle_nmi:0000000000000022 .L0 
/var/folders/v8/5w7qrjpd37x60gtz_mwnrxpr0000gn/T//ccWSpK0t.s:89     .text.handle_trap:000000000000003a .L0 
                     .debug_frame:0000000000000000 .L0 
/var/folders/v8/5w7qrjpd37x60gtz_mwnrxpr0000gn/T//ccWSpK0t.s:91     .rodata.handle_nmi.str1.4:0000000000000000 .LC0
/var/folders/v8/5w7qrjpd37x60gtz_mwnrxpr0000gn/T//ccWSpK0t.s:95     .rodata.handle_trap.str1.4:0000000000000000 .LC1
/var/folders/v8/5w7qrjpd37x60gtz_mwnrxpr0000gn/T//ccWSpK0t.s:81     .text.handle_trap:0000000000000030 .L7
/var/folders/v8/5w7qrjpd37x60gtz_mwnrxpr0000gn/T//ccWSpK0t.s:69     .text.handle_trap:0000000000000012 .L5
/var/folders/v8/5w7qrjpd37x60gtz_mwnrxpr0000gn/T//ccWSpK0t.s:1680   .debug_abbrev:0000000000000000 .Ldebug_abbrev0
/var/folders/v8/5w7qrjpd37x60gtz_mwnrxpr0000gn/T//ccWSpK0t.s:2470   .debug_str:00000000000002f7 .LASF131
/var/folders/v8/5w7qrjpd37x60gtz_mwnrxpr0000gn/T//ccWSpK0t.s:2394   .debug_str:0000000000000171 .LASF132
/var/folders/v8/5w7qrjpd37x60gtz_mwnrxpr0000gn/T//ccWSpK0t.s:2518   .debug_str:0000000000000447 .LASF133
/var/folders/v8/5w7qrjpd37x60gtz_mwnrxpr0000gn/T//ccWSpK0t.s:2312   .debug_ranges:0000000000000000 .Ldebug_ranges0
/var/folders/v8/5w7qrjpd37x60gtz_mwnrxpr0000gn/T//ccWSpK0t.s:2320   .debug_line:0000000000000000 .Ldebug_line0
/var/folders/v8/5w7qrjpd37x60gtz_mwnrxpr0000gn/T//ccWSpK0t.s:2358   .debug_str:00000000000000cd .LASF0
/var/folders/v8/5w7qrjpd37x60gtz_mwnrxpr0000gn/T//ccWSpK0t.s:2484   .debug_str:00000000000003b0 .LASF1
/var/folders/v8/5w7qrjpd37x60gtz_mwnrxpr0000gn/T//ccWSpK0t.s:2490   .debug_str:00000000000003cc .LASF2
/var/folders/v8/5w7qrjpd37x60gtz_mwnrxpr0000gn/T//ccWSpK0t.s:2430   .debug_str:000000000000022f .LASF3
/var/folders/v8/5w7qrjpd37x60gtz_mwnrxpr0000gn/T//ccWSpK0t.s:2374   .debug_str:0000000000000112 .LASF4
/var/folders/v8/5w7qrjpd37x60gtz_mwnrxpr0000gn/T//ccWSpK0t.s:2422   .debug_str:0000000000000209 .LASF5
/var/folders/v8/5w7qrjpd37x60gtz_mwnrxpr0000gn/T//ccWSpK0t.s:2356   .debug_str:00000000000000bf .LASF6
/var/folders/v8/5w7qrjpd37x60gtz_mwnrxpr0000gn/T//ccWSpK0t.s:2342   .debug_str:0000000000000068 .LASF7
/var/folders/v8/5w7qrjpd37x60gtz_mwnrxpr0000gn/T//ccWSpK0t.s:2504   .debug_str:0000000000000407 .LASF9
/var/folders/v8/5w7qrjpd37x60gtz_mwnrxpr0000gn/T//ccWSpK0t.s:2414   .debug_str:00000000000001e5 .LASF8
/var/folders/v8/5w7qrjpd37x60gtz_mwnrxpr0000gn/T//ccWSpK0t.s:2326   .debug_str:0000000000000012 .LASF10
/var/folders/v8/5w7qrjpd37x60gtz_mwnrxpr0000gn/T//ccWSpK0t.s:2462   .debug_str:00000000000002c4 .LASF11
/var/folders/v8/5w7qrjpd37x60gtz_mwnrxpr0000gn/T//ccWSpK0t.s:2444   .debug_str:000000000000027a .LASF12
GAS LISTING /var/folders/v8/5w7qrjpd37x60gtz_mwnrxpr0000gn/T//ccWSpK0t.s 			page 5


/var/folders/v8/5w7qrjpd37x60gtz_mwnrxpr0000gn/T//ccWSpK0t.s:2478   .debug_str:000000000000038d .LASF13
/var/folders/v8/5w7qrjpd37x60gtz_mwnrxpr0000gn/T//ccWSpK0t.s:2536   .debug_str:00000000000004c7 .LASF14
/var/folders/v8/5w7qrjpd37x60gtz_mwnrxpr0000gn/T//ccWSpK0t.s:2570   .debug_str:000000000000055c .LASF15
/var/folders/v8/5w7qrjpd37x60gtz_mwnrxpr0000gn/T//ccWSpK0t.s:2440   .debug_str:000000000000026c .LASF16
/var/folders/v8/5w7qrjpd37x60gtz_mwnrxpr0000gn/T//ccWSpK0t.s:2416   .debug_str:00000000000001f2 .LASF17
/var/folders/v8/5w7qrjpd37x60gtz_mwnrxpr0000gn/T//ccWSpK0t.s:2528   .debug_str:00000000000004a5 .LASF18
/var/folders/v8/5w7qrjpd37x60gtz_mwnrxpr0000gn/T//ccWSpK0t.s:2530   .debug_str:00000000000004ad .LASF19
/var/folders/v8/5w7qrjpd37x60gtz_mwnrxpr0000gn/T//ccWSpK0t.s:2500   .debug_str:00000000000003f4 .LASF20
/var/folders/v8/5w7qrjpd37x60gtz_mwnrxpr0000gn/T//ccWSpK0t.s:2556   .debug_str:0000000000000512 .LASF21
/var/folders/v8/5w7qrjpd37x60gtz_mwnrxpr0000gn/T//ccWSpK0t.s:2482   .debug_str:000000000000039e .LASF22
/var/folders/v8/5w7qrjpd37x60gtz_mwnrxpr0000gn/T//ccWSpK0t.s:2400   .debug_str:00000000000001a8 .LASF23
/var/folders/v8/5w7qrjpd37x60gtz_mwnrxpr0000gn/T//ccWSpK0t.s:2404   .debug_str:00000000000001b9 .LASF28
/var/folders/v8/5w7qrjpd37x60gtz_mwnrxpr0000gn/T//ccWSpK0t.s:2548   .debug_str:00000000000004f1 .LASF24
/var/folders/v8/5w7qrjpd37x60gtz_mwnrxpr0000gn/T//ccWSpK0t.s:2520   .debug_str:0000000000000488 .LASF25
/var/folders/v8/5w7qrjpd37x60gtz_mwnrxpr0000gn/T//ccWSpK0t.s:2398   .debug_str:00000000000001a2 .LASF26
/var/folders/v8/5w7qrjpd37x60gtz_mwnrxpr0000gn/T//ccWSpK0t.s:2564   .debug_str:0000000000000547 .LASF27
/var/folders/v8/5w7qrjpd37x60gtz_mwnrxpr0000gn/T//ccWSpK0t.s:2412   .debug_str:00000000000001e0 .LASF29
/var/folders/v8/5w7qrjpd37x60gtz_mwnrxpr0000gn/T//ccWSpK0t.s:2352   .debug_str:00000000000000b0 .LASF30
/var/folders/v8/5w7qrjpd37x60gtz_mwnrxpr0000gn/T//ccWSpK0t.s:2542   .debug_str:00000000000004db .LASF31
/var/folders/v8/5w7qrjpd37x60gtz_mwnrxpr0000gn/T//ccWSpK0t.s:2364   .debug_str:00000000000000e5 .LASF32
/var/folders/v8/5w7qrjpd37x60gtz_mwnrxpr0000gn/T//ccWSpK0t.s:2594   .debug_str:00000000000005c7 .LASF33
/var/folders/v8/5w7qrjpd37x60gtz_mwnrxpr0000gn/T//ccWSpK0t.s:2472   .debug_str:0000000000000371 .LASF34
/var/folders/v8/5w7qrjpd37x60gtz_mwnrxpr0000gn/T//ccWSpK0t.s:2456   .debug_str:00000000000002aa .LASF35
/var/folders/v8/5w7qrjpd37x60gtz_mwnrxpr0000gn/T//ccWSpK0t.s:2566   .debug_str:000000000000054c .LASF36
/var/folders/v8/5w7qrjpd37x60gtz_mwnrxpr0000gn/T//ccWSpK0t.s:2492   .debug_str:00000000000003d6 .LASF37
/var/folders/v8/5w7qrjpd37x60gtz_mwnrxpr0000gn/T//ccWSpK0t.s:2580   .debug_str:0000000000000587 .LASF38
/var/folders/v8/5w7qrjpd37x60gtz_mwnrxpr0000gn/T//ccWSpK0t.s:2368   .debug_str:00000000000000f4 .LASF39
/var/folders/v8/5w7qrjpd37x60gtz_mwnrxpr0000gn/T//ccWSpK0t.s:2392   .debug_str:0000000000000169 .LASF40
/var/folders/v8/5w7qrjpd37x60gtz_mwnrxpr0000gn/T//ccWSpK0t.s:2322   .debug_str:0000000000000000 .LASF41
/var/folders/v8/5w7qrjpd37x60gtz_mwnrxpr0000gn/T//ccWSpK0t.s:2552   .debug_str:0000000000000504 .LASF42
/var/folders/v8/5w7qrjpd37x60gtz_mwnrxpr0000gn/T//ccWSpK0t.s:2378   .debug_str:0000000000000122 .LASF43
/var/folders/v8/5w7qrjpd37x60gtz_mwnrxpr0000gn/T//ccWSpK0t.s:2474   .debug_str:000000000000037a .LASF44
/var/folders/v8/5w7qrjpd37x60gtz_mwnrxpr0000gn/T//ccWSpK0t.s:2512   .debug_str:0000000000000430 .LASF45
/var/folders/v8/5w7qrjpd37x60gtz_mwnrxpr0000gn/T//ccWSpK0t.s:2396   .debug_str:000000000000019d .LASF46
/var/folders/v8/5w7qrjpd37x60gtz_mwnrxpr0000gn/T//ccWSpK0t.s:2494   .debug_str:00000000000003e0 .LASF47
/var/folders/v8/5w7qrjpd37x60gtz_mwnrxpr0000gn/T//ccWSpK0t.s:2362   .debug_str:00000000000000df .LASF48
/var/folders/v8/5w7qrjpd37x60gtz_mwnrxpr0000gn/T//ccWSpK0t.s:2324   .debug_str:000000000000000c .LASF49
/var/folders/v8/5w7qrjpd37x60gtz_mwnrxpr0000gn/T//ccWSpK0t.s:2502   .debug_str:00000000000003ff .LASF50
/var/folders/v8/5w7qrjpd37x60gtz_mwnrxpr0000gn/T//ccWSpK0t.s:2376   .debug_str:000000000000011b .LASF51
/var/folders/v8/5w7qrjpd37x60gtz_mwnrxpr0000gn/T//ccWSpK0t.s:2424   .debug_str:000000000000021b .LASF52
/var/folders/v8/5w7qrjpd37x60gtz_mwnrxpr0000gn/T//ccWSpK0t.s:2344   .debug_str:000000000000007f .LASF53
/var/folders/v8/5w7qrjpd37x60gtz_mwnrxpr0000gn/T//ccWSpK0t.s:2370   .debug_str:0000000000000102 .LASF54
/var/folders/v8/5w7qrjpd37x60gtz_mwnrxpr0000gn/T//ccWSpK0t.s:2408   .debug_str:00000000000001d0 .LASF55
/var/folders/v8/5w7qrjpd37x60gtz_mwnrxpr0000gn/T//ccWSpK0t.s:2454   .debug_str:00000000000002a3 .LASF56
/var/folders/v8/5w7qrjpd37x60gtz_mwnrxpr0000gn/T//ccWSpK0t.s:2532   .debug_str:00000000000004b5 .LASF57
/var/folders/v8/5w7qrjpd37x60gtz_mwnrxpr0000gn/T//ccWSpK0t.s:2584   .debug_str:00000000000005a1 .LASF58
/var/folders/v8/5w7qrjpd37x60gtz_mwnrxpr0000gn/T//ccWSpK0t.s:2360   .debug_str:00000000000000d9 .LASF59
/var/folders/v8/5w7qrjpd37x60gtz_mwnrxpr0000gn/T//ccWSpK0t.s:2576   .debug_str:0000000000000579 .LASF60
/var/folders/v8/5w7qrjpd37x60gtz_mwnrxpr0000gn/T//ccWSpK0t.s:2382   .debug_str:0000000000000131 .LASF61
/var/folders/v8/5w7qrjpd37x60gtz_mwnrxpr0000gn/T//ccWSpK0t.s:2386   .debug_str:0000000000000142 .LASF62
/var/folders/v8/5w7qrjpd37x60gtz_mwnrxpr0000gn/T//ccWSpK0t.s:2336   .debug_str:0000000000000042 .LASF63
/var/folders/v8/5w7qrjpd37x60gtz_mwnrxpr0000gn/T//ccWSpK0t.s:2448   .debug_str:000000000000028c .LASF64
/var/folders/v8/5w7qrjpd37x60gtz_mwnrxpr0000gn/T//ccWSpK0t.s:2332   .debug_str:000000000000002d .LASF65
/var/folders/v8/5w7qrjpd37x60gtz_mwnrxpr0000gn/T//ccWSpK0t.s:2450   .debug_str:0000000000000292 .LASF66
/var/folders/v8/5w7qrjpd37x60gtz_mwnrxpr0000gn/T//ccWSpK0t.s:2522   .debug_str:0000000000000490 .LASF67
/var/folders/v8/5w7qrjpd37x60gtz_mwnrxpr0000gn/T//ccWSpK0t.s:2538   .debug_str:00000000000004cf .LASF68
/var/folders/v8/5w7qrjpd37x60gtz_mwnrxpr0000gn/T//ccWSpK0t.s:2380   .debug_str:000000000000012a .LASF69
GAS LISTING /var/folders/v8/5w7qrjpd37x60gtz_mwnrxpr0000gn/T//ccWSpK0t.s 			page 6


/var/folders/v8/5w7qrjpd37x60gtz_mwnrxpr0000gn/T//ccWSpK0t.s:2418   .debug_str:00000000000001f9 .LASF70
/var/folders/v8/5w7qrjpd37x60gtz_mwnrxpr0000gn/T//ccWSpK0t.s:2402   .debug_str:00000000000001b1 .LASF71
/var/folders/v8/5w7qrjpd37x60gtz_mwnrxpr0000gn/T//ccWSpK0t.s:2510   .debug_str:000000000000042b .LASF72
/var/folders/v8/5w7qrjpd37x60gtz_mwnrxpr0000gn/T//ccWSpK0t.s:2328   .debug_str:000000000000001c .LASF73
/var/folders/v8/5w7qrjpd37x60gtz_mwnrxpr0000gn/T//ccWSpK0t.s:2464   .debug_str:00000000000002d0 .LASF74
/var/folders/v8/5w7qrjpd37x60gtz_mwnrxpr0000gn/T//ccWSpK0t.s:2514   .debug_str:0000000000000435 .LASF75
/var/folders/v8/5w7qrjpd37x60gtz_mwnrxpr0000gn/T//ccWSpK0t.s:2476   .debug_str:0000000000000382 .LASF76
/var/folders/v8/5w7qrjpd37x60gtz_mwnrxpr0000gn/T//ccWSpK0t.s:2516   .debug_str:000000000000043d .LASF77
/var/folders/v8/5w7qrjpd37x60gtz_mwnrxpr0000gn/T//ccWSpK0t.s:2438   .debug_str:0000000000000264 .LASF78
/var/folders/v8/5w7qrjpd37x60gtz_mwnrxpr0000gn/T//ccWSpK0t.s:2410   .debug_str:00000000000001d6 .LASF79
/var/folders/v8/5w7qrjpd37x60gtz_mwnrxpr0000gn/T//ccWSpK0t.s:2592   .debug_str:00000000000005c2 .LASF80
/var/folders/v8/5w7qrjpd37x60gtz_mwnrxpr0000gn/T//ccWSpK0t.s:2480   .debug_str:0000000000000394 .LASF81
/var/folders/v8/5w7qrjpd37x60gtz_mwnrxpr0000gn/T//ccWSpK0t.s:2420   .debug_str:0000000000000201 .LASF82
/var/folders/v8/5w7qrjpd37x60gtz_mwnrxpr0000gn/T//ccWSpK0t.s:2384   .debug_str:000000000000013a .LASF83
/var/folders/v8/5w7qrjpd37x60gtz_mwnrxpr0000gn/T//ccWSpK0t.s:2486   .debug_str:00000000000003be .LASF84
/var/folders/v8/5w7qrjpd37x60gtz_mwnrxpr0000gn/T//ccWSpK0t.s:2432   .debug_str:0000000000000242 .LASF85
/var/folders/v8/5w7qrjpd37x60gtz_mwnrxpr0000gn/T//ccWSpK0t.s:2574   .debug_str:000000000000056f .LASF86
/var/folders/v8/5w7qrjpd37x60gtz_mwnrxpr0000gn/T//ccWSpK0t.s:2372   .debug_str:000000000000010a .LASF87
/var/folders/v8/5w7qrjpd37x60gtz_mwnrxpr0000gn/T//ccWSpK0t.s:2366   .debug_str:00000000000000ef .LASF88
/var/folders/v8/5w7qrjpd37x60gtz_mwnrxpr0000gn/T//ccWSpK0t.s:2540   .debug_str:00000000000004d6 .LASF89
/var/folders/v8/5w7qrjpd37x60gtz_mwnrxpr0000gn/T//ccWSpK0t.s:2498   .debug_str:00000000000003ed .LASF90
/var/folders/v8/5w7qrjpd37x60gtz_mwnrxpr0000gn/T//ccWSpK0t.s:2568   .debug_str:0000000000000556 .LASF91
/var/folders/v8/5w7qrjpd37x60gtz_mwnrxpr0000gn/T//ccWSpK0t.s:2426   .debug_str:0000000000000221 .LASF92
/var/folders/v8/5w7qrjpd37x60gtz_mwnrxpr0000gn/T//ccWSpK0t.s:2496   .debug_str:00000000000003e7 .LASF93
/var/folders/v8/5w7qrjpd37x60gtz_mwnrxpr0000gn/T//ccWSpK0t.s:2524   .debug_str:0000000000000497 .LASF94
/var/folders/v8/5w7qrjpd37x60gtz_mwnrxpr0000gn/T//ccWSpK0t.s:2526   .debug_str:000000000000049f .LASF95
/var/folders/v8/5w7qrjpd37x60gtz_mwnrxpr0000gn/T//ccWSpK0t.s:2546   .debug_str:00000000000004eb .LASF96
/var/folders/v8/5w7qrjpd37x60gtz_mwnrxpr0000gn/T//ccWSpK0t.s:2554   .debug_str:000000000000050d .LASF97
/var/folders/v8/5w7qrjpd37x60gtz_mwnrxpr0000gn/T//ccWSpK0t.s:2562   .debug_str:000000000000053a .LASF98
/var/folders/v8/5w7qrjpd37x60gtz_mwnrxpr0000gn/T//ccWSpK0t.s:2550   .debug_str:00000000000004f7 .LASF99
/var/folders/v8/5w7qrjpd37x60gtz_mwnrxpr0000gn/T//ccWSpK0t.s:2436   .debug_str:0000000000000257 .LASF100
/var/folders/v8/5w7qrjpd37x60gtz_mwnrxpr0000gn/T//ccWSpK0t.s:2582   .debug_str:0000000000000592 .LASF101
/var/folders/v8/5w7qrjpd37x60gtz_mwnrxpr0000gn/T//ccWSpK0t.s:2406   .debug_str:00000000000001c1 .LASF102
/var/folders/v8/5w7qrjpd37x60gtz_mwnrxpr0000gn/T//ccWSpK0t.s:2506   .debug_str:0000000000000413 .LASF103
/var/folders/v8/5w7qrjpd37x60gtz_mwnrxpr0000gn/T//ccWSpK0t.s:2586   .debug_str:00000000000005a8 .LASF104
/var/folders/v8/5w7qrjpd37x60gtz_mwnrxpr0000gn/T//ccWSpK0t.s:2508   .debug_str:000000000000041e .LASF105
/var/folders/v8/5w7qrjpd37x60gtz_mwnrxpr0000gn/T//ccWSpK0t.s:2590   .debug_str:00000000000005b4 .LASF106
/var/folders/v8/5w7qrjpd37x60gtz_mwnrxpr0000gn/T//ccWSpK0t.s:2350   .debug_str:00000000000000a2 .LASF107
/var/folders/v8/5w7qrjpd37x60gtz_mwnrxpr0000gn/T//ccWSpK0t.s:2572   .debug_str:0000000000000565 .LASF108
/var/folders/v8/5w7qrjpd37x60gtz_mwnrxpr0000gn/T//ccWSpK0t.s:2434   .debug_str:000000000000024b .LASF109
/var/folders/v8/5w7qrjpd37x60gtz_mwnrxpr0000gn/T//ccWSpK0t.s:2558   .debug_str:000000000000051a .LASF110
/var/folders/v8/5w7qrjpd37x60gtz_mwnrxpr0000gn/T//ccWSpK0t.s:2390   .debug_str:000000000000015b .LASF111
/var/folders/v8/5w7qrjpd37x60gtz_mwnrxpr0000gn/T//ccWSpK0t.s:2348   .debug_str:0000000000000093 .LASF112
/var/folders/v8/5w7qrjpd37x60gtz_mwnrxpr0000gn/T//ccWSpK0t.s:2388   .debug_str:000000000000014a .LASF113
/var/folders/v8/5w7qrjpd37x60gtz_mwnrxpr0000gn/T//ccWSpK0t.s:2338   .debug_str:0000000000000048 .LASF114
/var/folders/v8/5w7qrjpd37x60gtz_mwnrxpr0000gn/T//ccWSpK0t.s:2340   .debug_str:0000000000000057 .LASF115
/var/folders/v8/5w7qrjpd37x60gtz_mwnrxpr0000gn/T//ccWSpK0t.s:2488   .debug_str:00000000000003c3 .LASF116
/var/folders/v8/5w7qrjpd37x60gtz_mwnrxpr0000gn/T//ccWSpK0t.s:2468   .debug_str:00000000000002f0 .LASF117
/var/folders/v8/5w7qrjpd37x60gtz_mwnrxpr0000gn/T//ccWSpK0t.s:2458   .debug_str:00000000000002b4 .LASF118
/var/folders/v8/5w7qrjpd37x60gtz_mwnrxpr0000gn/T//ccWSpK0t.s:2578   .debug_str:000000000000057f .LASF119
/var/folders/v8/5w7qrjpd37x60gtz_mwnrxpr0000gn/T//ccWSpK0t.s:2346   .debug_str:0000000000000088 .LASF134
/var/folders/v8/5w7qrjpd37x60gtz_mwnrxpr0000gn/T//ccWSpK0t.s:2534   .debug_str:00000000000004bb .LASF120
/var/folders/v8/5w7qrjpd37x60gtz_mwnrxpr0000gn/T//ccWSpK0t.s:2560   .debug_str:0000000000000527 .LASF121
/var/folders/v8/5w7qrjpd37x60gtz_mwnrxpr0000gn/T//ccWSpK0t.s:2442   .debug_str:0000000000000272 .LASF122
/var/folders/v8/5w7qrjpd37x60gtz_mwnrxpr0000gn/T//ccWSpK0t.s:2460   .debug_str:00000000000002bd .LASF123
/var/folders/v8/5w7qrjpd37x60gtz_mwnrxpr0000gn/T//ccWSpK0t.s:2466   .debug_str:00000000000002e9 .LASF124
/var/folders/v8/5w7qrjpd37x60gtz_mwnrxpr0000gn/T//ccWSpK0t.s:2544   .debug_str:00000000000004e4 .LASF125
GAS LISTING /var/folders/v8/5w7qrjpd37x60gtz_mwnrxpr0000gn/T//ccWSpK0t.s 			page 7


/var/folders/v8/5w7qrjpd37x60gtz_mwnrxpr0000gn/T//ccWSpK0t.s:2588   .debug_str:00000000000005ad .LASF126
/var/folders/v8/5w7qrjpd37x60gtz_mwnrxpr0000gn/T//ccWSpK0t.s:2452   .debug_str:000000000000029a .LASF127
/var/folders/v8/5w7qrjpd37x60gtz_mwnrxpr0000gn/T//ccWSpK0t.s:2334   .debug_str:0000000000000036 .LASF135
/var/folders/v8/5w7qrjpd37x60gtz_mwnrxpr0000gn/T//ccWSpK0t.s:46     .text.handle_trap:0000000000000000 .LFB6
/var/folders/v8/5w7qrjpd37x60gtz_mwnrxpr0000gn/T//ccWSpK0t.s:87     .text.handle_trap:000000000000003a .LFE6
/var/folders/v8/5w7qrjpd37x60gtz_mwnrxpr0000gn/T//ccWSpK0t.s:2235   .debug_loc:0000000000000000 .LLST1
/var/folders/v8/5w7qrjpd37x60gtz_mwnrxpr0000gn/T//ccWSpK0t.s:2428   .debug_str:0000000000000228 .LASF128
/var/folders/v8/5w7qrjpd37x60gtz_mwnrxpr0000gn/T//ccWSpK0t.s:2248   .debug_loc:0000000000000020 .LLST2
/var/folders/v8/5w7qrjpd37x60gtz_mwnrxpr0000gn/T//ccWSpK0t.s:2259   .debug_loc:000000000000003e .LLST3
/var/folders/v8/5w7qrjpd37x60gtz_mwnrxpr0000gn/T//ccWSpK0t.s:76     .text.handle_trap:0000000000000026 .LVL4
/var/folders/v8/5w7qrjpd37x60gtz_mwnrxpr0000gn/T//ccWSpK0t.s:80     .text.handle_trap:0000000000000030 .LVL5
/var/folders/v8/5w7qrjpd37x60gtz_mwnrxpr0000gn/T//ccWSpK0t.s:84     .text.handle_trap:0000000000000038 .LVL6
/var/folders/v8/5w7qrjpd37x60gtz_mwnrxpr0000gn/T//ccWSpK0t.s:2446   .debug_str:0000000000000281 .LASF136
/var/folders/v8/5w7qrjpd37x60gtz_mwnrxpr0000gn/T//ccWSpK0t.s:14     .text.handle_nmi:0000000000000000 .LFB5
/var/folders/v8/5w7qrjpd37x60gtz_mwnrxpr0000gn/T//ccWSpK0t.s:39     .text.handle_nmi:0000000000000022 .LFE5
/var/folders/v8/5w7qrjpd37x60gtz_mwnrxpr0000gn/T//ccWSpK0t.s:2284   .debug_loc:0000000000000078 .LLST0
/var/folders/v8/5w7qrjpd37x60gtz_mwnrxpr0000gn/T//ccWSpK0t.s:33     .text.handle_nmi:0000000000000018 .LVL0
/var/folders/v8/5w7qrjpd37x60gtz_mwnrxpr0000gn/T//ccWSpK0t.s:37     .text.handle_nmi:0000000000000022 .LVL1
/var/folders/v8/5w7qrjpd37x60gtz_mwnrxpr0000gn/T//ccWSpK0t.s:2330   .debug_str:0000000000000027 .LASF129
/var/folders/v8/5w7qrjpd37x60gtz_mwnrxpr0000gn/T//ccWSpK0t.s:2354   .debug_str:00000000000000b9 .LASF130
/var/folders/v8/5w7qrjpd37x60gtz_mwnrxpr0000gn/T//ccWSpK0t.s:53     .text.handle_trap:0000000000000002 .LCFI1
/var/folders/v8/5w7qrjpd37x60gtz_mwnrxpr0000gn/T//ccWSpK0t.s:49     .text.handle_trap:0000000000000000 .LVL2
/var/folders/v8/5w7qrjpd37x60gtz_mwnrxpr0000gn/T//ccWSpK0t.s:68     .text.handle_trap:0000000000000012 .LVL3
/var/folders/v8/5w7qrjpd37x60gtz_mwnrxpr0000gn/T//ccWSpK0t.s:22     .text.handle_nmi:0000000000000006 .LCFI0
/var/folders/v8/5w7qrjpd37x60gtz_mwnrxpr0000gn/T//ccWSpK0t.s:107    .debug_info:0000000000000000 .Ldebug_info0

UNDEFINED SYMBOLS
write
_exit
