GAS LISTING /var/folders/v8/5w7qrjpd37x60gtz_mwnrxpr0000gn/T//cciQAmbK.s 			page 1


   1              		.file	"main.c"
   2              		.option nopic
   3              		.attribute arch, "rv32i2p0_m2p0_a2p0_c2p0"
   4              		.attribute unaligned_access, 0
   5              		.attribute stack_align, 16
   6              		.text
   7              	.Ltext0:
   8              		.cfi_sections	.debug_frame
   9              		.section	.text.init_ADC_B0,"ax",@progbits
  10              		.align	1
  11              		.globl	init_ADC_B0
  13              	init_ADC_B0:
  14              	.LFB3:
  15              		.file 1 "main.c"
   1:main.c        **** #include "gd32vf103.h"
   2:main.c        **** #include "delay.h"
   3:main.c        **** #include "pwm.h"
   4:main.c        **** 
   5:main.c        **** void init_ADC_B0();
   6:main.c        **** void initCMG(void);
   7:main.c        **** 
   8:main.c        **** 
   9:main.c        **** int main(void){
  10:main.c        ****     initMotorA();
  11:main.c        ****     init_ADC_B0();
  12:main.c        ****     int adcr;
  13:main.c        **** 
  14:main.c        ****     while(1){
  15:main.c        ****         adcr = ADC_RDATA(ADC0);
  16:main.c        ****         adcr = (adcr*1000)/4096;
  17:main.c        ****         if(adcr>500){
  18:main.c        ****             SetMotorA(100);
  19:main.c        ****         }else{
  20:main.c        ****             SetMotorA(0);
  21:main.c        ****         }   
  22:main.c        ****     }
  23:main.c        **** }
  24:main.c        **** 
  25:main.c        **** 
  26:main.c        **** void init_ADC_B0(){
  16              		.loc 1 26 19
  17              		.cfi_startproc
  27:main.c        ****     /* enable GPIOA clock */
  28:main.c        ****     rcu_periph_clock_enable(RCU_GPIOB);
  18              		.loc 1 28 5
  26:main.c        ****     /* enable GPIOA clock */
  19              		.loc 1 26 19 is_stmt 0
  20 0000 4111     		addi	sp,sp,-16
  21              	.LCFI0:
  22              		.cfi_def_cfa_offset 16
  23              		.loc 1 28 5
  24 0002 13053060 		li	a0,1539
  26:main.c        ****     /* enable GPIOA clock */
  25              		.loc 1 26 19
  26 0006 06C6     		sw	ra,12(sp)
  27 0008 22C4     		sw	s0,8(sp)
  28              		.cfi_offset 1, -4
GAS LISTING /var/folders/v8/5w7qrjpd37x60gtz_mwnrxpr0000gn/T//cciQAmbK.s 			page 2


  29              		.cfi_offset 8, -8
  30              		.loc 1 28 5
  31 000a 97000000 		call	rcu_periph_clock_enable
  31      E7800000 
  32              	.LVL0:
  29:main.c        ****     /* Initialize the GPIO that will be used for ADC. A0-A7 and B0-B1 are connected to an ADC-chann
  30:main.c        ****     gpio_init(GPIOB, GPIO_MODE_AIN, GPIO_OSPEED_50MHZ, GPIO_PIN_0);
  33              		.loc 1 30 5 is_stmt 1
  34 0012 37150140 		li	a0,1073811456
  35 0016 8546     		li	a3,1
  36 0018 0D46     		li	a2,3
  37 001a 8145     		li	a1,0
  38 001c 130505C0 		addi	a0,a0,-1024
  39 0020 97000000 		call	gpio_init
  39      E7800000 
  40              	.LVL1:
  31:main.c        ****     /* enable ADC clock */
  32:main.c        ****     rcu_periph_clock_enable(RCU_ADC0);
  41              		.loc 1 32 5
  42 0028 13059060 		li	a0,1545
  43 002c 97000000 		call	rcu_periph_clock_enable
  43      E7800000 
  44              	.LVL2:
  33:main.c        **** 
  34:main.c        ****     /* Select the clock frequency that will be used for the ADC core. Refer to README for more info
  35:main.c        ****     rcu_adc_clock_config(RCU_CKADC_CKAPB2_DIV8);
  45              		.loc 1 35 5
  46 0034 0D45     		li	a0,3
  36:main.c        **** 
  37:main.c        ****     /* Reset ADC0 configuration. GD32VF103 has two internal ADCs (ADC0, ADC1). */
  38:main.c        ****     adc_deinit(ADC0);
  47              		.loc 1 38 5 is_stmt 0
  48 0036 37240140 		li	s0,1073815552
  35:main.c        **** 
  49              		.loc 1 35 5
  50 003a 97000000 		call	rcu_adc_clock_config
  50      E7800000 
  51              	.LVL3:
  52              		.loc 1 38 5 is_stmt 1
  53 0042 13050440 		addi	a0,s0,1024
  54 0046 97000000 		call	adc_deinit
  54      E7800000 
  55              	.LVL4:
  39:main.c        **** 
  40:main.c        ****     /* Set the ADCs to work independently. Refer to the manual for the different parallel modes ava
  41:main.c        ****     adc_mode_config(ADC_MODE_FREE);
  56              		.loc 1 41 5
  57 004e 0145     		li	a0,0
  58 0050 97000000 		call	adc_mode_config
  58      E7800000 
  59              	.LVL5:
  42:main.c        **** 
  43:main.c        ****     /* Set the conversion mode to continuous. Continious mode lets the ADC take measurements contin
  44:main.c        ****        an external trigger. */
  45:main.c        ****     adc_special_function_config(ADC0, ADC_CONTINUOUS_MODE, ENABLE);
  60              		.loc 1 45 5
  61 0058 0546     		li	a2,1
GAS LISTING /var/folders/v8/5w7qrjpd37x60gtz_mwnrxpr0000gn/T//cciQAmbK.s 			page 3


  62 005a 13050440 		addi	a0,s0,1024
  63 005e 8945     		li	a1,2
  64 0060 97000000 		call	adc_special_function_config
  64      E7800000 
  65              	.LVL6:
  46:main.c        **** 
  47:main.c        ****     /* Sets where padding is applied to the measurement. Data alignment right puts padding bits abo
  48:main.c        ****     adc_data_alignment_config(ADC0, ADC_DATAALIGN_RIGHT);
  66              		.loc 1 48 5
  67 0068 13050440 		addi	a0,s0,1024
  68 006c 8145     		li	a1,0
  69 006e 97000000 		call	adc_data_alignment_config
  69      E7800000 
  70              	.LVL7:
  49:main.c        **** 
  50:main.c        ****     /* Selects how many channels to convert each time. This can be used to "queue" multiple channel
  51:main.c        ****     adc_channel_length_config(ADC0, ADC_REGULAR_CHANNEL, 1);
  71              		.loc 1 51 5
  72 0076 13050440 		addi	a0,s0,1024
  73 007a 0546     		li	a2,1
  74 007c 8545     		li	a1,1
  75 007e 97000000 		call	adc_channel_length_config
  75      E7800000 
  76              	.LVL8:
  52:main.c        **** 
  53:main.c        ****     /* Set the channel as the first "queued" conversion each time the ADC is activated. */
  54:main.c        ****     adc_regular_channel_config(ADC0, 0, ADC_CHANNEL_8, ADC_SAMPLETIME_13POINT5);
  77              		.loc 1 54 5
  78 0086 8946     		li	a3,2
  79 0088 13050440 		addi	a0,s0,1024
  80 008c 2146     		li	a2,8
  81 008e 8145     		li	a1,0
  82 0090 97000000 		call	adc_regular_channel_config
  82      E7800000 
  83              	.LVL9:
  55:main.c        **** 
  56:main.c        ****     /* Since we are using continious conversion we do not want to use an external trigger. */
  57:main.c        ****     adc_external_trigger_source_config(ADC0, ADC_REGULAR_CHANNEL, ADC0_1_EXTTRIG_REGULAR_NONE);
  84              		.loc 1 57 5
  85 0098 13050440 		addi	a0,s0,1024
  86 009c 37060E00 		li	a2,917504
  87 00a0 8545     		li	a1,1
  88 00a2 97000000 		call	adc_external_trigger_source_config
  88      E7800000 
  89              	.LVL10:
  58:main.c        ****     adc_external_trigger_config(ADC0, ADC_REGULAR_CHANNEL, ENABLE);
  90              		.loc 1 58 5
  91 00aa 8545     		li	a1,1
  92 00ac 0546     		li	a2,1
  93 00ae 13050440 		addi	a0,s0,1024
  94 00b2 97000000 		call	adc_external_trigger_config
  94      E7800000 
  95              	.LVL11:
  59:main.c        **** 
  60:main.c        ****     /* Enable ADC.*/
  61:main.c        ****     adc_enable(ADC0);
  96              		.loc 1 61 5
GAS LISTING /var/folders/v8/5w7qrjpd37x60gtz_mwnrxpr0000gn/T//cciQAmbK.s 			page 4


  97 00ba 13050440 		addi	a0,s0,1024
  98 00be 97000000 		call	adc_enable
  98      E7800000 
  99              	.LVL12:
  62:main.c        **** 
  63:main.c        ****     /* Let ADC stabilize */
  64:main.c        ****     delay_1ms(1);
 100              		.loc 1 64 5
 101 00c6 0545     		li	a0,1
 102 00c8 97000000 		call	delay_1ms
 102      E7800000 
 103              	.LVL13:
  65:main.c        **** 
  66:main.c        ****     /* Calibrates the ADC against an internal source. */
  67:main.c        ****     adc_calibration_enable(ADC0);
 104              		.loc 1 67 5
 105 00d0 13050440 		addi	a0,s0,1024
 106 00d4 97000000 		call	adc_calibration_enable
 106      E7800000 
 107              	.LVL14:
  68:main.c        **** 
  69:main.c        ****     /* Start converting */
  70:main.c        ****     adc_software_trigger_enable(ADC0, ADC_REGULAR_CHANNEL);
 108              		.loc 1 70 5
 109 00dc 13050440 		addi	a0,s0,1024
  71:main.c        **** }
 110              		.loc 1 71 1 is_stmt 0
 111 00e0 2244     		lw	s0,8(sp)
 112              		.cfi_restore 8
 113 00e2 B240     		lw	ra,12(sp)
 114              		.cfi_restore 1
  70:main.c        **** }
 115              		.loc 1 70 5
 116 00e4 8545     		li	a1,1
 117              		.loc 1 71 1
 118 00e6 4101     		addi	sp,sp,16
 119              	.LCFI1:
 120              		.cfi_def_cfa_offset 0
  70:main.c        **** }
 121              		.loc 1 70 5
 122 00e8 17030000 		tail	adc_software_trigger_enable
 122      67000300 
 123              	.LVL15:
 124              		.cfi_endproc
 125              	.LFE3:
 127              		.section	.text.startup.main,"ax",@progbits
 128              		.align	1
 129              		.globl	main
 131              	main:
 132              	.LFB2:
   9:main.c        ****     initMotorA();
 133              		.loc 1 9 15 is_stmt 1
 134              		.cfi_startproc
  10:main.c        ****     init_ADC_B0();
 135              		.loc 1 10 5
   9:main.c        ****     initMotorA();
 136              		.loc 1 9 15 is_stmt 0
GAS LISTING /var/folders/v8/5w7qrjpd37x60gtz_mwnrxpr0000gn/T//cciQAmbK.s 			page 5


 137 0000 4111     		addi	sp,sp,-16
 138              	.LCFI2:
 139              		.cfi_def_cfa_offset 16
 140 0002 06C6     		sw	ra,12(sp)
 141 0004 22C4     		sw	s0,8(sp)
 142 0006 26C2     		sw	s1,4(sp)
 143 0008 4AC0     		sw	s2,0(sp)
 144              		.cfi_offset 1, -4
 145              		.cfi_offset 8, -8
 146              		.cfi_offset 9, -12
 147              		.cfi_offset 18, -16
  16:main.c        ****         if(adcr>500){
 148              		.loc 1 16 21
 149 000a 9304803E 		li	s1,1000
  10:main.c        ****     init_ADC_B0();
 150              		.loc 1 10 5
 151 000e 97000000 		call	initMotorA
 151      E7800000 
 152              	.LVL16:
  11:main.c        ****     int adcr;
 153              		.loc 1 11 5 is_stmt 1
  15:main.c        ****         adcr = (adcr*1000)/4096;
 154              		.loc 1 15 16 is_stmt 0
 155 0016 37290140 		li	s2,1073815552
  11:main.c        ****     int adcr;
 156              		.loc 1 11 5
 157 001a 97000000 		call	init_ADC_B0
 157      E7800000 
 158              	.LVL17:
  17:main.c        ****             SetMotorA(100);
 159              		.loc 1 17 11
 160 0022 37541F00 		li	s0,2052096
 161 0026 29A0     		j	.L5
 162              	.LVL18:
 163              	.L9:
  20:main.c        ****         }   
 164              		.loc 1 20 13
 165 0028 97000000 		call	SetMotorA
 165      E7800000 
 166              	.LVL19:
 167              	.L5:
  12:main.c        **** 
 168              		.loc 1 12 5 is_stmt 1
  14:main.c        ****         adcr = ADC_RDATA(ADC0);
 169              		.loc 1 14 5
  15:main.c        ****         adcr = (adcr*1000)/4096;
 170              		.loc 1 15 9
  18:main.c        ****         }else{
 171              		.loc 1 18 13
  15:main.c        ****         adcr = (adcr*1000)/4096;
 172              		.loc 1 15 16 is_stmt 0
 173 0030 8327C944 		lw	a5,1100(s2)
 174              	.LVL20:
  16:main.c        ****         if(adcr>500){
 175              		.loc 1 16 9 is_stmt 1
  17:main.c        ****             SetMotorA(100);
 176              		.loc 1 17 9
GAS LISTING /var/folders/v8/5w7qrjpd37x60gtz_mwnrxpr0000gn/T//cciQAmbK.s 			page 6


  18:main.c        ****         }else{
 177              		.loc 1 18 13 is_stmt 0
 178 0034 13054006 		li	a0,100
  16:main.c        ****         if(adcr>500){
 179              		.loc 1 16 21
 180 0038 B3879702 		mul	a5,a5,s1
 181              	.LVL21:
  17:main.c        ****             SetMotorA(100);
 182              		.loc 1 17 11
 183 003c E3D687FE 		bge	a5,s0,.L9
  20:main.c        ****         }   
 184              		.loc 1 20 13 is_stmt 1
 185 0040 0145     		li	a0,0
 186 0042 DDB7     		j	.L9
 187              		.cfi_endproc
 188              	.LFE2:
 190              		.text
 191              	.Letext0:
 192              		.file 2 "/Users/gulda/Desktop/toolchain-gd32v-osx/compiler/riscv64-unknown-elf/include/machine/_de
 193              		.file 3 "/Users/gulda/Desktop/toolchain-gd32v-osx/compiler/riscv64-unknown-elf/include/sys/_stdint
 194              		.file 4 "../../firmware/GD32VF103_standard_peripheral/gd32vf103.h"
 195              		.file 5 "../../firmware/GD32VF103_standard_peripheral/Include/gd32vf103_rcu.h"
 196              		.file 6 "../../firmware/GD32VF103_standard_peripheral/Include/gd32vf103_gpio.h"
 197              		.file 7 "../../firmware/GD32VF103_standard_peripheral/Include/gd32vf103_adc.h"
 198              		.file 8 "lib/delay/include/delay.h"
 199              		.file 9 "pwm.h"
 200              		.file 10 "../../firmware/GD32VF103_standard_peripheral/system_gd32vf103.h"
GAS LISTING /var/folders/v8/5w7qrjpd37x60gtz_mwnrxpr0000gn/T//cciQAmbK.s 			page 7

