GAS LISTING /var/folders/v8/5w7qrjpd37x60gtz_mwnrxpr0000gn/T//ccPlLk8i.s 			page 1


   1              		.file	"main.c"
   2              		.option nopic
   3              		.attribute arch, "rv32i2p0_m2p0_a2p0_c2p0"
   4              		.attribute unaligned_access, 0
   5              		.attribute stack_align, 16
   6              		.text
   7              	.Ltext0:
   8              		.cfi_sections	.debug_frame
   9              		.section	.text.init_ADC_B0,"ax",@progbits
  10              		.align	1
  11              		.globl	init_ADC_B0
  13              	init_ADC_B0:
  14              	.LFB6:
  15              		.file 1 "main.c"
   1:main.c        **** #include "gd32vf103.h"
   2:main.c        **** #include "delay.h"
   3:main.c        **** #include "pwm.h"
   4:main.c        **** #include "gd32v_mpu6500_if.h"
   5:main.c        **** #include "PID.h"
   6:main.c        **** #include "cordic-math.h"
   7:main.c        **** 
   8:main.c        **** void init_ADC_B0();
   9:main.c        **** void initCMG(void);
  10:main.c        **** 
  11:main.c        **** 
  12:main.c        **** int main(void){
  13:main.c        ****     initCMG();
  14:main.c        ****     int prev_time=0,current_time=0, delta_Time=0,adcr;
  15:main.c        ****     int32_t gyroX,gyroY,accX,accY,roll=0,pitch=0;
  16:main.c        ****     mpu_vector_t vecA, vecG;
  17:main.c        **** 
  18:main.c        ****     while(1){
  19:main.c        ****         
  20:main.c        ****         adcr = ADC_RDATA(ADC0);
  21:main.c        ****         adcr = (adcr*1000)/4096;
  22:main.c        ****         
  23:main.c        ****        
  24:main.c        ****         
  25:main.c        ****         prev_time = current_time;
  26:main.c        ****         current_time = millis();
  27:main.c        ****         delta_Time = current_time - prev_time;
  28:main.c        ****         
  29:main.c        ****         mpu6500_getGyroAccel(&vecG,&vecA);
  30:main.c        ****         
  31:main.c        ****         accX = cordic_atan(vecA.x, vecA.z);
  32:main.c        ****         accY = cordic_atan(-vecA.y, vecA.z);
  33:main.c        **** 
  34:main.c        ****         if(accX>=46080){
  35:main.c        ****             accX-=92160;    //subtract 360 degrees
  36:main.c        ****         }
  37:main.c        ****         if(accY>=46080){
  38:main.c        ****             accY-=92160;    //subtract 360 degrees
  39:main.c        ****         }
  40:main.c        **** 
  41:main.c        ****         gyroX = -(delta_Time * (int)vecG.y << 16)/(4194*1000);   // Turns into fixed point 8 <<
  42:main.c        ****         gyroY = -(delta_Time * (int)vecG.x << 16)/(4194*1000);
  43:main.c        **** 
GAS LISTING /var/folders/v8/5w7qrjpd37x60gtz_mwnrxpr0000gn/T//ccPlLk8i.s 			page 2


  44:main.c        ****         //Complementary Filter
  45:main.c        ****         roll = ((0.99*(gyroX+roll)) + (0.01*accX));
  46:main.c        ****         pitch = ((0.99*(gyroY+pitch)) + (0.01*accY));  
  47:main.c        ****         
  48:main.c        ****         //MoveServoB(adcr);
  49:main.c        ****         MoveServoA(-pitch*2);
  50:main.c        ****         //MoveServoB(pitch-1500);
  51:main.c        ****         //SetMotorB(adcr);
  52:main.c        ****         //SetMotorA(adcr);
  53:main.c        ****     }
  54:main.c        **** }
  55:main.c        **** 
  56:main.c        **** 
  57:main.c        **** void init_ADC_B0(){
  16              		.loc 1 57 19
  17              		.cfi_startproc
  58:main.c        ****     /* enable GPIOA clock */
  59:main.c        ****     rcu_periph_clock_enable(RCU_GPIOB);
  18              		.loc 1 59 5
  57:main.c        ****     /* enable GPIOA clock */
  19              		.loc 1 57 19 is_stmt 0
  20 0000 4111     		addi	sp,sp,-16
  21              	.LCFI0:
  22              		.cfi_def_cfa_offset 16
  23              		.loc 1 59 5
  24 0002 13053060 		li	a0,1539
  57:main.c        ****     /* enable GPIOA clock */
  25              		.loc 1 57 19
  26 0006 06C6     		sw	ra,12(sp)
  27 0008 22C4     		sw	s0,8(sp)
  28              		.cfi_offset 1, -4
  29              		.cfi_offset 8, -8
  30              		.loc 1 59 5
  31 000a 97000000 		call	rcu_periph_clock_enable
  31      E7800000 
  32              	.LVL0:
  60:main.c        ****     /* Initialize the GPIO that will be used for ADC. A0-A7 and B0-B1 are connected to an ADC-chann
  61:main.c        ****     gpio_init(GPIOB, GPIO_MODE_AIN, GPIO_OSPEED_50MHZ, GPIO_PIN_0);
  33              		.loc 1 61 5 is_stmt 1
  34 0012 37150140 		li	a0,1073811456
  35 0016 8546     		li	a3,1
  36 0018 0D46     		li	a2,3
  37 001a 8145     		li	a1,0
  38 001c 130505C0 		addi	a0,a0,-1024
  39 0020 97000000 		call	gpio_init
  39      E7800000 
  40              	.LVL1:
  62:main.c        ****     /* enable ADC clock */
  63:main.c        ****     rcu_periph_clock_enable(RCU_ADC0);
  41              		.loc 1 63 5
  42 0028 13059060 		li	a0,1545
  43 002c 97000000 		call	rcu_periph_clock_enable
  43      E7800000 
  44              	.LVL2:
  64:main.c        **** 
  65:main.c        ****     /* Select the clock frequency that will be used for the ADC core. Refer to README for more info
  66:main.c        ****     rcu_adc_clock_config(RCU_CKADC_CKAPB2_DIV8);
GAS LISTING /var/folders/v8/5w7qrjpd37x60gtz_mwnrxpr0000gn/T//ccPlLk8i.s 			page 3


  45              		.loc 1 66 5
  46 0034 0D45     		li	a0,3
  67:main.c        **** 
  68:main.c        ****     /* Reset ADC0 configuration. GD32VF103 has two internal ADCs (ADC0, ADC1). */
  69:main.c        ****     adc_deinit(ADC0);
  47              		.loc 1 69 5 is_stmt 0
  48 0036 37240140 		li	s0,1073815552
  66:main.c        **** 
  49              		.loc 1 66 5
  50 003a 97000000 		call	rcu_adc_clock_config
  50      E7800000 
  51              	.LVL3:
  52              		.loc 1 69 5 is_stmt 1
  53 0042 13050440 		addi	a0,s0,1024
  54 0046 97000000 		call	adc_deinit
  54      E7800000 
  55              	.LVL4:
  70:main.c        **** 
  71:main.c        ****     /* Set the ADCs to work independently. Refer to the manual for the different parallel modes ava
  72:main.c        ****     adc_mode_config(ADC_MODE_FREE);
  56              		.loc 1 72 5
  57 004e 0145     		li	a0,0
  58 0050 97000000 		call	adc_mode_config
  58      E7800000 
  59              	.LVL5:
  73:main.c        **** 
  74:main.c        ****     /* Set the conversion mode to continuous. Continious mode lets the ADC take measurements contin
  75:main.c        ****        an external trigger. */
  76:main.c        ****     adc_special_function_config(ADC0, ADC_CONTINUOUS_MODE, ENABLE);
  60              		.loc 1 76 5
  61 0058 0546     		li	a2,1
  62 005a 13050440 		addi	a0,s0,1024
  63 005e 8945     		li	a1,2
  64 0060 97000000 		call	adc_special_function_config
  64      E7800000 
  65              	.LVL6:
  77:main.c        **** 
  78:main.c        ****     /* Sets where padding is applied to the measurement. Data alignment right puts padding bits abo
  79:main.c        ****     adc_data_alignment_config(ADC0, ADC_DATAALIGN_RIGHT);
  66              		.loc 1 79 5
  67 0068 13050440 		addi	a0,s0,1024
  68 006c 8145     		li	a1,0
  69 006e 97000000 		call	adc_data_alignment_config
  69      E7800000 
  70              	.LVL7:
  80:main.c        **** 
  81:main.c        ****     /* Selects how many channels to convert each time. This can be used to "queue" multiple channel
  82:main.c        ****     adc_channel_length_config(ADC0, ADC_REGULAR_CHANNEL, 1);
  71              		.loc 1 82 5
  72 0076 13050440 		addi	a0,s0,1024
  73 007a 0546     		li	a2,1
  74 007c 8545     		li	a1,1
  75 007e 97000000 		call	adc_channel_length_config
  75      E7800000 
  76              	.LVL8:
  83:main.c        **** 
  84:main.c        ****     /* Set the channel as the first "queued" conversion each time the ADC is activated. */
GAS LISTING /var/folders/v8/5w7qrjpd37x60gtz_mwnrxpr0000gn/T//ccPlLk8i.s 			page 4


  85:main.c        ****     adc_regular_channel_config(ADC0, 0, ADC_CHANNEL_8, ADC_SAMPLETIME_13POINT5);
  77              		.loc 1 85 5
  78 0086 8946     		li	a3,2
  79 0088 13050440 		addi	a0,s0,1024
  80 008c 2146     		li	a2,8
  81 008e 8145     		li	a1,0
  82 0090 97000000 		call	adc_regular_channel_config
  82      E7800000 
  83              	.LVL9:
  86:main.c        **** 
  87:main.c        ****     /* Since we are using continious conversion we do not want to use an external trigger. */
  88:main.c        ****     adc_external_trigger_source_config(ADC0, ADC_REGULAR_CHANNEL, ADC0_1_EXTTRIG_REGULAR_NONE);
  84              		.loc 1 88 5
  85 0098 13050440 		addi	a0,s0,1024
  86 009c 37060E00 		li	a2,917504
  87 00a0 8545     		li	a1,1
  88 00a2 97000000 		call	adc_external_trigger_source_config
  88      E7800000 
  89              	.LVL10:
  89:main.c        ****     adc_external_trigger_config(ADC0, ADC_REGULAR_CHANNEL, ENABLE);
  90              		.loc 1 89 5
  91 00aa 8545     		li	a1,1
  92 00ac 0546     		li	a2,1
  93 00ae 13050440 		addi	a0,s0,1024
  94 00b2 97000000 		call	adc_external_trigger_config
  94      E7800000 
  95              	.LVL11:
  90:main.c        **** 
  91:main.c        ****     /* Enable ADC.*/
  92:main.c        ****     adc_enable(ADC0);
  96              		.loc 1 92 5
  97 00ba 13050440 		addi	a0,s0,1024
  98 00be 97000000 		call	adc_enable
  98      E7800000 
  99              	.LVL12:
  93:main.c        **** 
  94:main.c        ****     /* Let ADC stabilize */
  95:main.c        ****     delay_1ms(1);
 100              		.loc 1 95 5
 101 00c6 0545     		li	a0,1
 102 00c8 97000000 		call	delay_1ms
 102      E7800000 
 103              	.LVL13:
  96:main.c        **** 
  97:main.c        ****     /* Calibrates the ADC against an internal source. */
  98:main.c        ****     adc_calibration_enable(ADC0);
 104              		.loc 1 98 5
 105 00d0 13050440 		addi	a0,s0,1024
 106 00d4 97000000 		call	adc_calibration_enable
 106      E7800000 
 107              	.LVL14:
  99:main.c        **** 
 100:main.c        ****     /* Start converting */
 101:main.c        ****     adc_software_trigger_enable(ADC0, ADC_REGULAR_CHANNEL);
 108              		.loc 1 101 5
 109 00dc 13050440 		addi	a0,s0,1024
 102:main.c        **** }
GAS LISTING /var/folders/v8/5w7qrjpd37x60gtz_mwnrxpr0000gn/T//ccPlLk8i.s 			page 5


 110              		.loc 1 102 1 is_stmt 0
 111 00e0 2244     		lw	s0,8(sp)
 112              		.cfi_restore 8
 113 00e2 B240     		lw	ra,12(sp)
 114              		.cfi_restore 1
 101:main.c        **** }
 115              		.loc 1 101 5
 116 00e4 8545     		li	a1,1
 117              		.loc 1 102 1
 118 00e6 4101     		addi	sp,sp,16
 119              	.LCFI1:
 120              		.cfi_def_cfa_offset 0
 101:main.c        **** }
 121              		.loc 1 101 5
 122 00e8 17030000 		tail	adc_software_trigger_enable
 122      67000300 
 123              	.LVL15:
 124              		.cfi_endproc
 125              	.LFE6:
 127              		.section	.text.initCMG,"ax",@progbits
 128              		.align	1
 129              		.globl	initCMG
 131              	initCMG:
 132              	.LFB7:
 103:main.c        **** 
 104:main.c        **** void initCMG(void){
 133              		.loc 1 104 19 is_stmt 1
 134              		.cfi_startproc
 105:main.c        ****     InitPWM();
 135              		.loc 1 105 5
 104:main.c        ****     InitPWM();
 136              		.loc 1 104 19 is_stmt 0
 137 0000 4111     		addi	sp,sp,-16
 138              	.LCFI2:
 139              		.cfi_def_cfa_offset 16
 140 0002 06C6     		sw	ra,12(sp)
 141              		.cfi_offset 1, -4
 142              		.loc 1 105 5
 143 0004 97000000 		call	InitPWM
 143      E7800000 
 144              	.LVL16:
 106:main.c        ****     initServoA();
 145              		.loc 1 106 5 is_stmt 1
 146 000c 97000000 		call	initServoA
 146      E7800000 
 147              	.LVL17:
 107:main.c        ****     /* Initialize pins for I2C */
 108:main.c        ****     rcu_periph_clock_enable(RCU_GPIOB);
 148              		.loc 1 108 5
 149 0014 13053060 		li	a0,1539
 150 0018 97000000 		call	rcu_periph_clock_enable
 150      E7800000 
 151              	.LVL18:
 109:main.c        ****     rcu_periph_clock_enable(RCU_I2C0);
 152              		.loc 1 109 5
 153 0020 13055071 		li	a0,1813
 154 0024 97000000 		call	rcu_periph_clock_enable
GAS LISTING /var/folders/v8/5w7qrjpd37x60gtz_mwnrxpr0000gn/T//ccPlLk8i.s 			page 6


 154      E7800000 
 155              	.LVL19:
 110:main.c        ****     gpio_init(GPIOB, GPIO_MODE_AF_OD, GPIO_OSPEED_50MHZ, GPIO_PIN_6 | GPIO_PIN_7);
 156              		.loc 1 110 5
 157 002c 37150140 		li	a0,1073811456
 158 0030 9306000C 		li	a3,192
 159 0034 0D46     		li	a2,3
 160 0036 F145     		li	a1,28
 161 0038 130505C0 		addi	a0,a0,-1024
 162 003c 97000000 		call	gpio_init
 162      E7800000 
 163              	.LVL20:
 111:main.c        ****     
 112:main.c        ****     mpu6500_install(I2C0);
 164              		.loc 1 112 5
 165 0044 37550040 		li	a0,1073762304
 166 0048 13050540 		addi	a0,a0,1024
 167 004c 97000000 		call	mpu6500_install
 167      E7800000 
 168              	.LVL21:
 113:main.c        ****     init_ADC_B0();
 169              		.loc 1 113 5
 170 0054 97000000 		call	init_ADC_B0
 170      E7800000 
 171              	.LVL22:
 114:main.c        ****     motorStartupSeq(400);
 172              		.loc 1 114 5
 115:main.c        **** }
 173              		.loc 1 115 1 is_stmt 0
 174 005c B240     		lw	ra,12(sp)
 175              		.cfi_restore 1
 114:main.c        ****     motorStartupSeq(400);
 176              		.loc 1 114 5
 177 005e 13050019 		li	a0,400
 178              		.loc 1 115 1
 179 0062 4101     		addi	sp,sp,16
 180              	.LCFI3:
 181              		.cfi_def_cfa_offset 0
 114:main.c        ****     motorStartupSeq(400);
 182              		.loc 1 114 5
 183 0064 17030000 		tail	motorStartupSeq
 183      67000300 
 184              	.LVL23:
 185              		.cfi_endproc
 186              	.LFE7:
 188              		.globl	__fixsfsi
 189              		.globl	__floatsidf
 190              		.globl	__muldf3
 191              		.globl	__adddf3
 192              		.globl	__fixdfsi
 193              		.section	.text.startup.main,"ax",@progbits
 194              		.align	1
 195              		.globl	main
 197              	main:
 198              	.LFB5:
  12:main.c        ****     initCMG();
 199              		.loc 1 12 15 is_stmt 1
GAS LISTING /var/folders/v8/5w7qrjpd37x60gtz_mwnrxpr0000gn/T//ccPlLk8i.s 			page 7


 200              		.cfi_startproc
  13:main.c        ****     int prev_time=0,current_time=0, delta_Time=0,adcr;
 201              		.loc 1 13 5
  12:main.c        ****     initCMG();
 202              		.loc 1 12 15 is_stmt 0
 203 0000 5971     		addi	sp,sp,-112
 204              	.LCFI4:
 205              		.cfi_def_cfa_offset 112
 206 0002 A2D4     		sw	s0,104(sp)
 207 0004 A6D2     		sw	s1,100(sp)
 208 0006 CECE     		sw	s3,92(sp)
 209 0008 D2CC     		sw	s4,88(sp)
 210 000a D6CA     		sw	s5,84(sp)
 211 000c DAC8     		sw	s6,80(sp)
 212 000e DEC6     		sw	s7,76(sp)
 213 0010 E2C4     		sw	s8,72(sp)
 214 0012 E6C2     		sw	s9,68(sp)
 215 0014 EAC0     		sw	s10,64(sp)
 216 0016 6EDE     		sw	s11,60(sp)
 217 0018 86D6     		sw	ra,108(sp)
 218 001a CAD0     		sw	s2,96(sp)
 219              		.cfi_offset 8, -8
 220              		.cfi_offset 9, -12
 221              		.cfi_offset 19, -20
 222              		.cfi_offset 20, -24
 223              		.cfi_offset 21, -28
 224              		.cfi_offset 22, -32
 225              		.cfi_offset 23, -36
 226              		.cfi_offset 24, -40
 227              		.cfi_offset 25, -44
 228              		.cfi_offset 26, -48
 229              		.cfi_offset 27, -52
 230              		.cfi_offset 1, -4
 231              		.cfi_offset 18, -16
  13:main.c        ****     int prev_time=0,current_time=0, delta_Time=0,adcr;
 232              		.loc 1 13 5
 233 001c 97000000 		call	initCMG
 233      E7800000 
 234              	.LVL24:
  14:main.c        ****     int32_t gyroX,gyroY,accX,accY,roll=0,pitch=0;
 235              		.loc 1 14 5 is_stmt 1
  15:main.c        ****     mpu_vector_t vecA, vecG;
 236              		.loc 1 15 5
  46:main.c        ****         
 237              		.loc 1 46 23 is_stmt 0
 238 0024 B7070000 		lui	a5,%hi(.LC0)
 239 0028 03AB0700 		lw	s6,%lo(.LC0)(a5)
 240 002c 83AB4700 		lw	s7,%lo(.LC0+4)(a5)
  38:main.c        ****         }
 241              		.loc 1 38 17
 242 0030 A97D     		li	s11,-90112
  46:main.c        ****         
 243              		.loc 1 46 46
 244 0032 B7070000 		lui	a5,%hi(.LC1)
 245 0036 03AA0700 		lw	s4,%lo(.LC1)(a5)
 246 003a 83AA4700 		lw	s5,%lo(.LC1+4)(a5)
  37:main.c        ****             accY-=92160;    //subtract 360 degrees
GAS LISTING /var/folders/v8/5w7qrjpd37x60gtz_mwnrxpr0000gn/T//ccPlLk8i.s 			page 8


 247              		.loc 1 37 11
 248 003e 2D6C     		li	s8,45056
  38:main.c        ****         }
 249              		.loc 1 38 17
 250 0040 93870D80 		addi	a5,s11,-2048
  42:main.c        **** 
 251              		.loc 1 42 15
 252 0044 B704C0FF 		li	s1,-4194304
  15:main.c        ****     mpu_vector_t vecA, vecG;
 253              		.loc 1 15 42
 254 0048 8149     		li	s3,0
  14:main.c        ****     int32_t gyroX,gyroY,accX,accY,roll=0,pitch=0;
 255              		.loc 1 14 21
 256 004a 0144     		li	s0,0
  20:main.c        ****         adcr = (adcr*1000)/4096;
 257              		.loc 1 20 16
 258 004c 372D0140 		li	s10,1073815552
  32:main.c        **** 
 259              		.loc 1 32 28
 260 0050 B70C0080 		li	s9,-2147483648
  37:main.c        ****             accY-=92160;    //subtract 360 degrees
 261              		.loc 1 37 11
 262 0054 130CFC3F 		addi	s8,s8,1023
  38:main.c        ****         }
 263              		.loc 1 38 17
 264 0058 3EC6     		sw	a5,12(sp)
  42:main.c        **** 
 265              		.loc 1 42 15
 266 005a 93840413 		addi	s1,s1,304
 267              	.LVL25:
 268              	.L8:
  16:main.c        **** 
 269              		.loc 1 16 5 is_stmt 1
  18:main.c        ****         
 270              		.loc 1 18 5
  20:main.c        ****         adcr = (adcr*1000)/4096;
 271              		.loc 1 20 9
  20:main.c        ****         adcr = (adcr*1000)/4096;
 272              		.loc 1 20 16 is_stmt 0
 273 005e 8327CD44 		lw	a5,1100(s10)
 274              	.LVL26:
  21:main.c        ****         
 275              		.loc 1 21 9 is_stmt 1
  25:main.c        ****         current_time = millis();
 276              		.loc 1 25 9
  26:main.c        ****         delta_Time = current_time - prev_time;
 277              		.loc 1 26 9
  26:main.c        ****         delta_Time = current_time - prev_time;
 278              		.loc 1 26 24 is_stmt 0
 279 0062 97000000 		call	millis
 279      E7800000 
 280              	.LVL27:
 281 006a AA8D     		mv	s11,a0
 282              	.LVL28:
  27:main.c        ****         
 283              		.loc 1 27 9 is_stmt 1
  29:main.c        ****         
GAS LISTING /var/folders/v8/5w7qrjpd37x60gtz_mwnrxpr0000gn/T//ccPlLk8i.s 			page 9


 284              		.loc 1 29 9 is_stmt 0
 285 006c 2C08     		addi	a1,sp,24
 286 006e 4810     		addi	a0,sp,36
 287              	.LVL29:
 288 0070 97000000 		call	mpu6500_getGyroAccel
 288      E7800000 
 289              	.LVL30:
  31:main.c        ****         accY = cordic_atan(-vecA.y, vecA.z);
 290              		.loc 1 31 16
 291 0078 0255     		lw	a0,32(sp)
  27:main.c        ****         
 292              		.loc 1 27 20
 293 007a 33898D40 		sub	s2,s11,s0
 294              	.LVL31:
  29:main.c        ****         
 295              		.loc 1 29 9 is_stmt 1
  31:main.c        ****         accY = cordic_atan(-vecA.y, vecA.z);
 296              		.loc 1 31 9
  26:main.c        ****         delta_Time = current_time - prev_time;
 297              		.loc 1 26 24 is_stmt 0
 298 007e 6E84     		mv	s0,s11
 299              	.LVL32:
  31:main.c        ****         accY = cordic_atan(-vecA.y, vecA.z);
 300              		.loc 1 31 16
 301 0080 97000000 		call	__fixsfsi
 301      E7800000 
 302              	.LVL33:
 303 0088 AA8D     		mv	s11,a0
 304              	.LVL34:
 305 008a 6245     		lw	a0,24(sp)
 306 008c 97000000 		call	__fixsfsi
 306      E7800000 
 307              	.LVL35:
 308 0094 EE85     		mv	a1,s11
 309 0096 97000000 		call	cordic_atan
 309      E7800000 
 310              	.LVL36:
  32:main.c        **** 
 311              		.loc 1 32 9 is_stmt 1
  32:main.c        **** 
 312              		.loc 1 32 16 is_stmt 0
 313 009e 0255     		lw	a0,32(sp)
 314 00a0 97000000 		call	__fixsfsi
 314      E7800000 
 315              	.LVL37:
 316 00a8 AA8D     		mv	s11,a0
  32:main.c        **** 
 317              		.loc 1 32 28
 318 00aa 7245     		lw	a0,28(sp)
  32:main.c        **** 
 319              		.loc 1 32 16
 320 00ac 33459501 		xor	a0,a0,s9
 321 00b0 97000000 		call	__fixsfsi
 321      E7800000 
 322              	.LVL38:
 323 00b8 EE85     		mv	a1,s11
 324 00ba 97000000 		call	cordic_atan
GAS LISTING /var/folders/v8/5w7qrjpd37x60gtz_mwnrxpr0000gn/T//ccPlLk8i.s 			page 10


 324      E7800000 
 325              	.LVL39:
  38:main.c        ****         }
 326              		.loc 1 38 13 is_stmt 1
  32:main.c        **** 
 327              		.loc 1 32 16 is_stmt 0
 328 00c2 AA8D     		mv	s11,a0
 329              	.LVL40:
  34:main.c        ****             accX-=92160;    //subtract 360 degrees
 330              		.loc 1 34 9 is_stmt 1
  37:main.c        ****             accY-=92160;    //subtract 360 degrees
 331              		.loc 1 37 9
  37:main.c        ****             accY-=92160;    //subtract 360 degrees
 332              		.loc 1 37 11 is_stmt 0
 333 00c4 6355AC00 		ble	a0,s8,.L7
  38:main.c        ****         }
 334              		.loc 1 38 17
 335 00c8 B247     		lw	a5,12(sp)
 336 00ca B30DF500 		add	s11,a0,a5
 337              	.LVL41:
 338              	.L7:
  41:main.c        ****         gyroY = -(delta_Time * (int)vecG.x << 16)/(4194*1000);
 339              		.loc 1 41 9 is_stmt 1
  42:main.c        **** 
 340              		.loc 1 42 9
  45:main.c        ****         pitch = ((0.99*(gyroY+pitch)) + (0.01*accY));  
 341              		.loc 1 45 9
  46:main.c        ****         
 342              		.loc 1 46 9
  42:main.c        **** 
 343              		.loc 1 42 32 is_stmt 0
 344 00ce 1255     		lw	a0,36(sp)
 345 00d0 97000000 		call	__fixsfsi
 345      E7800000 
 346              	.LVL42:
  42:main.c        **** 
 347              		.loc 1 42 30
 348 00d8 33052503 		mul	a0,a0,s2
  42:main.c        **** 
 349              		.loc 1 42 44
 350 00dc 4205     		slli	a0,a0,16
  42:main.c        **** 
 351              		.loc 1 42 15
 352 00de 33459502 		div	a0,a0,s1
  46:main.c        ****         
 353              		.loc 1 46 23
 354 00e2 4E95     		add	a0,a0,s3
 355 00e4 97000000 		call	__floatsidf
 355      E7800000 
 356              	.LVL43:
 357 00ec 5A86     		mv	a2,s6
 358 00ee DE86     		mv	a3,s7
 359 00f0 97000000 		call	__muldf3
 359      E7800000 
 360              	.LVL44:
 361 00f8 2A89     		mv	s2,a0
 362              	.LVL45:
GAS LISTING /var/folders/v8/5w7qrjpd37x60gtz_mwnrxpr0000gn/T//ccPlLk8i.s 			page 11


  46:main.c        ****         
 363              		.loc 1 46 46
 364 00fa 6E85     		mv	a0,s11
  46:main.c        ****         
 365              		.loc 1 46 23
 366 00fc AE89     		mv	s3,a1
 367              	.LVL46:
  46:main.c        ****         
 368              		.loc 1 46 46
 369 00fe 97000000 		call	__floatsidf
 369      E7800000 
 370              	.LVL47:
 371 0106 5286     		mv	a2,s4
 372 0108 D686     		mv	a3,s5
 373 010a 97000000 		call	__muldf3
 373      E7800000 
 374              	.LVL48:
  46:main.c        ****         
 375              		.loc 1 46 39
 376 0112 2A86     		mv	a2,a0
 377 0114 AE86     		mv	a3,a1
 378 0116 4A85     		mv	a0,s2
 379 0118 CE85     		mv	a1,s3
 380 011a 97000000 		call	__adddf3
 380      E7800000 
 381              	.LVL49:
  46:main.c        ****         
 382              		.loc 1 46 15
 383 0122 97000000 		call	__fixdfsi
 383      E7800000 
 384              	.LVL50:
 385 012a AA89     		mv	s3,a0
 386              	.LVL51:
  49:main.c        ****         //MoveServoB(pitch-1500);
 387              		.loc 1 49 9 is_stmt 1
  49:main.c        ****         //MoveServoB(pitch-1500);
 388              		.loc 1 49 26 is_stmt 0
 389 012c 3305A040 		neg	a0,a0
 390              	.LVL52:
  49:main.c        ****         //MoveServoB(pitch-1500);
 391              		.loc 1 49 9
 392 0130 0605     		slli	a0,a0,1
 393 0132 97000000 		call	MoveServoA
 393      E7800000 
 394              	.LVL53:
  20:main.c        ****         adcr = (adcr*1000)/4096;
 395              		.loc 1 20 14
 396 013a 15B7     		j	.L8
 397              		.cfi_endproc
 398              	.LFE5:
 400              		.section	.rodata.main.cst8,"aM",@progbits,8
 401              		.align	3
 402              	.LC0:
 403 0000 AE47E17A 		.word	2061584302
 404 0004 14AEEF3F 		.word	1072672276
 405              	.LC1:
 406 0008 7B14AE47 		.word	1202590843
GAS LISTING /var/folders/v8/5w7qrjpd37x60gtz_mwnrxpr0000gn/T//ccPlLk8i.s 			page 12


 407 000c E17A843F 		.word	1065646817
 408              		.text
 409              	.Letext0:
 410              		.file 2 "/Users/gulda/Desktop/toolchain-gd32v-osx/compiler/riscv64-unknown-elf/include/machine/_de
 411              		.file 3 "/Users/gulda/Desktop/toolchain-gd32v-osx/compiler/riscv64-unknown-elf/include/sys/_stdint
 412              		.file 4 "../../firmware/GD32VF103_standard_peripheral/gd32vf103.h"
 413              		.file 5 "../../firmware/GD32VF103_standard_peripheral/Include/gd32vf103_rcu.h"
 414              		.file 6 "/Users/gulda/Desktop/toolchain-gd32v-osx/compiler/lib/gcc/riscv64-unknown-elf/8.3.0/inclu
 415              		.file 7 "/Users/gulda/Desktop/toolchain-gd32v-osx/compiler/riscv64-unknown-elf/include/sys/_types.
 416              		.file 8 "/Users/gulda/Desktop/toolchain-gd32v-osx/compiler/riscv64-unknown-elf/include/sys/reent.h
 417              		.file 9 "/Users/gulda/Desktop/toolchain-gd32v-osx/compiler/riscv64-unknown-elf/include/sys/lock.h"
 418              		.file 10 "../../firmware/GD32VF103_standard_peripheral/system_gd32vf103.h"
 419              		.file 11 "lib/mpu/include/mpu6500_driver.h"
 420              		.file 12 "pwm.h"
 421              		.file 13 "../../firmware/GD32VF103_standard_peripheral/Include/gd32vf103_gpio.h"
 422              		.file 14 "lib/mpu/include/gd32v_mpu6500_if.h"
 423              		.file 15 "../../firmware/GD32VF103_standard_peripheral/Include/gd32vf103_adc.h"
 424              		.file 16 "lib/delay/include/delay.h"
 425              		.file 17 "lib/cordicMath/include/cordic-math.h"
GAS LISTING /var/folders/v8/5w7qrjpd37x60gtz_mwnrxpr0000gn/T//ccPlLk8i.s 			page 13


DEFINED SYMBOLS
                            *ABS*:0000000000000000 main.c
/var/folders/v8/5w7qrjpd37x60gtz_mwnrxpr0000gn/T//ccPlLk8i.s:13     .text.init_ADC_B0:0000000000000000 init_ADC_B0
/var/folders/v8/5w7qrjpd37x60gtz_mwnrxpr0000gn/T//ccPlLk8i.s:17     .text.init_ADC_B0:0000000000000000 .L0 
/var/folders/v8/5w7qrjpd37x60gtz_mwnrxpr0000gn/T//ccPlLk8i.s:18     .text.init_ADC_B0:0000000000000000 .L0 
/var/folders/v8/5w7qrjpd37x60gtz_mwnrxpr0000gn/T//ccPlLk8i.s:19     .text.init_ADC_B0:0000000000000000 .L0 
/var/folders/v8/5w7qrjpd37x60gtz_mwnrxpr0000gn/T//ccPlLk8i.s:20     .text.init_ADC_B0:0000000000000000 .L0 
/var/folders/v8/5w7qrjpd37x60gtz_mwnrxpr0000gn/T//ccPlLk8i.s:22     .text.init_ADC_B0:0000000000000002 .L0 
/var/folders/v8/5w7qrjpd37x60gtz_mwnrxpr0000gn/T//ccPlLk8i.s:24     .text.init_ADC_B0:0000000000000002 .L0 
/var/folders/v8/5w7qrjpd37x60gtz_mwnrxpr0000gn/T//ccPlLk8i.s:26     .text.init_ADC_B0:0000000000000006 .L0 
/var/folders/v8/5w7qrjpd37x60gtz_mwnrxpr0000gn/T//ccPlLk8i.s:28     .text.init_ADC_B0:000000000000000a .L0 
/var/folders/v8/5w7qrjpd37x60gtz_mwnrxpr0000gn/T//ccPlLk8i.s:29     .text.init_ADC_B0:000000000000000a .L0 
/var/folders/v8/5w7qrjpd37x60gtz_mwnrxpr0000gn/T//ccPlLk8i.s:31     .text.init_ADC_B0:000000000000000a .L0 
/var/folders/v8/5w7qrjpd37x60gtz_mwnrxpr0000gn/T//ccPlLk8i.s:34     .text.init_ADC_B0:0000000000000012 .L0 
/var/folders/v8/5w7qrjpd37x60gtz_mwnrxpr0000gn/T//ccPlLk8i.s:42     .text.init_ADC_B0:0000000000000028 .L0 
/var/folders/v8/5w7qrjpd37x60gtz_mwnrxpr0000gn/T//ccPlLk8i.s:46     .text.init_ADC_B0:0000000000000034 .L0 
/var/folders/v8/5w7qrjpd37x60gtz_mwnrxpr0000gn/T//ccPlLk8i.s:48     .text.init_ADC_B0:0000000000000036 .L0 
/var/folders/v8/5w7qrjpd37x60gtz_mwnrxpr0000gn/T//ccPlLk8i.s:50     .text.init_ADC_B0:000000000000003a .L0 
/var/folders/v8/5w7qrjpd37x60gtz_mwnrxpr0000gn/T//ccPlLk8i.s:53     .text.init_ADC_B0:0000000000000042 .L0 
/var/folders/v8/5w7qrjpd37x60gtz_mwnrxpr0000gn/T//ccPlLk8i.s:57     .text.init_ADC_B0:000000000000004e .L0 
/var/folders/v8/5w7qrjpd37x60gtz_mwnrxpr0000gn/T//ccPlLk8i.s:61     .text.init_ADC_B0:0000000000000058 .L0 
/var/folders/v8/5w7qrjpd37x60gtz_mwnrxpr0000gn/T//ccPlLk8i.s:67     .text.init_ADC_B0:0000000000000068 .L0 
/var/folders/v8/5w7qrjpd37x60gtz_mwnrxpr0000gn/T//ccPlLk8i.s:72     .text.init_ADC_B0:0000000000000076 .L0 
/var/folders/v8/5w7qrjpd37x60gtz_mwnrxpr0000gn/T//ccPlLk8i.s:78     .text.init_ADC_B0:0000000000000086 .L0 
/var/folders/v8/5w7qrjpd37x60gtz_mwnrxpr0000gn/T//ccPlLk8i.s:85     .text.init_ADC_B0:0000000000000098 .L0 
/var/folders/v8/5w7qrjpd37x60gtz_mwnrxpr0000gn/T//ccPlLk8i.s:91     .text.init_ADC_B0:00000000000000aa .L0 
/var/folders/v8/5w7qrjpd37x60gtz_mwnrxpr0000gn/T//ccPlLk8i.s:97     .text.init_ADC_B0:00000000000000ba .L0 
/var/folders/v8/5w7qrjpd37x60gtz_mwnrxpr0000gn/T//ccPlLk8i.s:101    .text.init_ADC_B0:00000000000000c6 .L0 
/var/folders/v8/5w7qrjpd37x60gtz_mwnrxpr0000gn/T//ccPlLk8i.s:105    .text.init_ADC_B0:00000000000000d0 .L0 
/var/folders/v8/5w7qrjpd37x60gtz_mwnrxpr0000gn/T//ccPlLk8i.s:109    .text.init_ADC_B0:00000000000000dc .L0 
/var/folders/v8/5w7qrjpd37x60gtz_mwnrxpr0000gn/T//ccPlLk8i.s:111    .text.init_ADC_B0:00000000000000e0 .L0 
/var/folders/v8/5w7qrjpd37x60gtz_mwnrxpr0000gn/T//ccPlLk8i.s:112    .text.init_ADC_B0:00000000000000e2 .L0 
/var/folders/v8/5w7qrjpd37x60gtz_mwnrxpr0000gn/T//ccPlLk8i.s:114    .text.init_ADC_B0:00000000000000e4 .L0 
/var/folders/v8/5w7qrjpd37x60gtz_mwnrxpr0000gn/T//ccPlLk8i.s:116    .text.init_ADC_B0:00000000000000e4 .L0 
/var/folders/v8/5w7qrjpd37x60gtz_mwnrxpr0000gn/T//ccPlLk8i.s:118    .text.init_ADC_B0:00000000000000e6 .L0 
/var/folders/v8/5w7qrjpd37x60gtz_mwnrxpr0000gn/T//ccPlLk8i.s:120    .text.init_ADC_B0:00000000000000e8 .L0 
/var/folders/v8/5w7qrjpd37x60gtz_mwnrxpr0000gn/T//ccPlLk8i.s:122    .text.init_ADC_B0:00000000000000e8 .L0 
/var/folders/v8/5w7qrjpd37x60gtz_mwnrxpr0000gn/T//ccPlLk8i.s:124    .text.init_ADC_B0:00000000000000f0 .L0 
/var/folders/v8/5w7qrjpd37x60gtz_mwnrxpr0000gn/T//ccPlLk8i.s:131    .text.initCMG:0000000000000000 initCMG
/var/folders/v8/5w7qrjpd37x60gtz_mwnrxpr0000gn/T//ccPlLk8i.s:134    .text.initCMG:0000000000000000 .L0 
/var/folders/v8/5w7qrjpd37x60gtz_mwnrxpr0000gn/T//ccPlLk8i.s:135    .text.initCMG:0000000000000000 .L0 
/var/folders/v8/5w7qrjpd37x60gtz_mwnrxpr0000gn/T//ccPlLk8i.s:136    .text.initCMG:0000000000000000 .L0 
/var/folders/v8/5w7qrjpd37x60gtz_mwnrxpr0000gn/T//ccPlLk8i.s:137    .text.initCMG:0000000000000000 .L0 
/var/folders/v8/5w7qrjpd37x60gtz_mwnrxpr0000gn/T//ccPlLk8i.s:139    .text.initCMG:0000000000000002 .L0 
/var/folders/v8/5w7qrjpd37x60gtz_mwnrxpr0000gn/T//ccPlLk8i.s:141    .text.initCMG:0000000000000004 .L0 
/var/folders/v8/5w7qrjpd37x60gtz_mwnrxpr0000gn/T//ccPlLk8i.s:143    .text.initCMG:0000000000000004 .L0 
/var/folders/v8/5w7qrjpd37x60gtz_mwnrxpr0000gn/T//ccPlLk8i.s:146    .text.initCMG:000000000000000c .L0 
/var/folders/v8/5w7qrjpd37x60gtz_mwnrxpr0000gn/T//ccPlLk8i.s:149    .text.initCMG:0000000000000014 .L0 
/var/folders/v8/5w7qrjpd37x60gtz_mwnrxpr0000gn/T//ccPlLk8i.s:153    .text.initCMG:0000000000000020 .L0 
/var/folders/v8/5w7qrjpd37x60gtz_mwnrxpr0000gn/T//ccPlLk8i.s:157    .text.initCMG:000000000000002c .L0 
/var/folders/v8/5w7qrjpd37x60gtz_mwnrxpr0000gn/T//ccPlLk8i.s:165    .text.initCMG:0000000000000044 .L0 
/var/folders/v8/5w7qrjpd37x60gtz_mwnrxpr0000gn/T//ccPlLk8i.s:170    .text.initCMG:0000000000000054 .L0 
/var/folders/v8/5w7qrjpd37x60gtz_mwnrxpr0000gn/T//ccPlLk8i.s:173    .text.initCMG:000000000000005c .L0 
/var/folders/v8/5w7qrjpd37x60gtz_mwnrxpr0000gn/T//ccPlLk8i.s:174    .text.initCMG:000000000000005c .L0 
/var/folders/v8/5w7qrjpd37x60gtz_mwnrxpr0000gn/T//ccPlLk8i.s:175    .text.initCMG:000000000000005e .L0 
/var/folders/v8/5w7qrjpd37x60gtz_mwnrxpr0000gn/T//ccPlLk8i.s:177    .text.initCMG:000000000000005e .L0 
/var/folders/v8/5w7qrjpd37x60gtz_mwnrxpr0000gn/T//ccPlLk8i.s:179    .text.initCMG:0000000000000062 .L0 
GAS LISTING /var/folders/v8/5w7qrjpd37x60gtz_mwnrxpr0000gn/T//ccPlLk8i.s 			page 14


/var/folders/v8/5w7qrjpd37x60gtz_mwnrxpr0000gn/T//ccPlLk8i.s:181    .text.initCMG:0000000000000064 .L0 
/var/folders/v8/5w7qrjpd37x60gtz_mwnrxpr0000gn/T//ccPlLk8i.s:183    .text.initCMG:0000000000000064 .L0 
/var/folders/v8/5w7qrjpd37x60gtz_mwnrxpr0000gn/T//ccPlLk8i.s:185    .text.initCMG:000000000000006c .L0 
/var/folders/v8/5w7qrjpd37x60gtz_mwnrxpr0000gn/T//ccPlLk8i.s:197    .text.startup.main:0000000000000000 main
/var/folders/v8/5w7qrjpd37x60gtz_mwnrxpr0000gn/T//ccPlLk8i.s:200    .text.startup.main:0000000000000000 .L0 
/var/folders/v8/5w7qrjpd37x60gtz_mwnrxpr0000gn/T//ccPlLk8i.s:201    .text.startup.main:0000000000000000 .L0 
/var/folders/v8/5w7qrjpd37x60gtz_mwnrxpr0000gn/T//ccPlLk8i.s:202    .text.startup.main:0000000000000000 .L0 
/var/folders/v8/5w7qrjpd37x60gtz_mwnrxpr0000gn/T//ccPlLk8i.s:203    .text.startup.main:0000000000000000 .L0 
/var/folders/v8/5w7qrjpd37x60gtz_mwnrxpr0000gn/T//ccPlLk8i.s:205    .text.startup.main:0000000000000002 .L0 
/var/folders/v8/5w7qrjpd37x60gtz_mwnrxpr0000gn/T//ccPlLk8i.s:219    .text.startup.main:000000000000001c .L0 
/var/folders/v8/5w7qrjpd37x60gtz_mwnrxpr0000gn/T//ccPlLk8i.s:220    .text.startup.main:000000000000001c .L0 
/var/folders/v8/5w7qrjpd37x60gtz_mwnrxpr0000gn/T//ccPlLk8i.s:221    .text.startup.main:000000000000001c .L0 
/var/folders/v8/5w7qrjpd37x60gtz_mwnrxpr0000gn/T//ccPlLk8i.s:222    .text.startup.main:000000000000001c .L0 
/var/folders/v8/5w7qrjpd37x60gtz_mwnrxpr0000gn/T//ccPlLk8i.s:223    .text.startup.main:000000000000001c .L0 
/var/folders/v8/5w7qrjpd37x60gtz_mwnrxpr0000gn/T//ccPlLk8i.s:224    .text.startup.main:000000000000001c .L0 
/var/folders/v8/5w7qrjpd37x60gtz_mwnrxpr0000gn/T//ccPlLk8i.s:225    .text.startup.main:000000000000001c .L0 
/var/folders/v8/5w7qrjpd37x60gtz_mwnrxpr0000gn/T//ccPlLk8i.s:226    .text.startup.main:000000000000001c .L0 
/var/folders/v8/5w7qrjpd37x60gtz_mwnrxpr0000gn/T//ccPlLk8i.s:227    .text.startup.main:000000000000001c .L0 
/var/folders/v8/5w7qrjpd37x60gtz_mwnrxpr0000gn/T//ccPlLk8i.s:228    .text.startup.main:000000000000001c .L0 
/var/folders/v8/5w7qrjpd37x60gtz_mwnrxpr0000gn/T//ccPlLk8i.s:229    .text.startup.main:000000000000001c .L0 
/var/folders/v8/5w7qrjpd37x60gtz_mwnrxpr0000gn/T//ccPlLk8i.s:230    .text.startup.main:000000000000001c .L0 
/var/folders/v8/5w7qrjpd37x60gtz_mwnrxpr0000gn/T//ccPlLk8i.s:231    .text.startup.main:000000000000001c .L0 
/var/folders/v8/5w7qrjpd37x60gtz_mwnrxpr0000gn/T//ccPlLk8i.s:233    .text.startup.main:000000000000001c .L0 
/var/folders/v8/5w7qrjpd37x60gtz_mwnrxpr0000gn/T//ccPlLk8i.s:236    .text.startup.main:0000000000000024 .L0 
/var/folders/v8/5w7qrjpd37x60gtz_mwnrxpr0000gn/T//ccPlLk8i.s:237    .text.startup.main:0000000000000024 .L0 
/var/folders/v8/5w7qrjpd37x60gtz_mwnrxpr0000gn/T//ccPlLk8i.s:238    .text.startup.main:0000000000000024 .L0 
/var/folders/v8/5w7qrjpd37x60gtz_mwnrxpr0000gn/T//ccPlLk8i.s:242    .text.startup.main:0000000000000030 .L0 
/var/folders/v8/5w7qrjpd37x60gtz_mwnrxpr0000gn/T//ccPlLk8i.s:244    .text.startup.main:0000000000000032 .L0 
/var/folders/v8/5w7qrjpd37x60gtz_mwnrxpr0000gn/T//ccPlLk8i.s:248    .text.startup.main:000000000000003e .L0 
/var/folders/v8/5w7qrjpd37x60gtz_mwnrxpr0000gn/T//ccPlLk8i.s:250    .text.startup.main:0000000000000040 .L0 
/var/folders/v8/5w7qrjpd37x60gtz_mwnrxpr0000gn/T//ccPlLk8i.s:252    .text.startup.main:0000000000000044 .L0 
/var/folders/v8/5w7qrjpd37x60gtz_mwnrxpr0000gn/T//ccPlLk8i.s:254    .text.startup.main:0000000000000048 .L0 
/var/folders/v8/5w7qrjpd37x60gtz_mwnrxpr0000gn/T//ccPlLk8i.s:256    .text.startup.main:000000000000004a .L0 
/var/folders/v8/5w7qrjpd37x60gtz_mwnrxpr0000gn/T//ccPlLk8i.s:258    .text.startup.main:000000000000004c .L0 
/var/folders/v8/5w7qrjpd37x60gtz_mwnrxpr0000gn/T//ccPlLk8i.s:260    .text.startup.main:0000000000000050 .L0 
/var/folders/v8/5w7qrjpd37x60gtz_mwnrxpr0000gn/T//ccPlLk8i.s:262    .text.startup.main:0000000000000054 .L0 
/var/folders/v8/5w7qrjpd37x60gtz_mwnrxpr0000gn/T//ccPlLk8i.s:264    .text.startup.main:0000000000000058 .L0 
/var/folders/v8/5w7qrjpd37x60gtz_mwnrxpr0000gn/T//ccPlLk8i.s:266    .text.startup.main:000000000000005a .L0 
/var/folders/v8/5w7qrjpd37x60gtz_mwnrxpr0000gn/T//ccPlLk8i.s:270    .text.startup.main:000000000000005e .L0 
/var/folders/v8/5w7qrjpd37x60gtz_mwnrxpr0000gn/T//ccPlLk8i.s:271    .text.startup.main:000000000000005e .L0 
/var/folders/v8/5w7qrjpd37x60gtz_mwnrxpr0000gn/T//ccPlLk8i.s:272    .text.startup.main:000000000000005e .L0 
/var/folders/v8/5w7qrjpd37x60gtz_mwnrxpr0000gn/T//ccPlLk8i.s:273    .text.startup.main:000000000000005e .L0 
/var/folders/v8/5w7qrjpd37x60gtz_mwnrxpr0000gn/T//ccPlLk8i.s:276    .text.startup.main:0000000000000062 .L0 
/var/folders/v8/5w7qrjpd37x60gtz_mwnrxpr0000gn/T//ccPlLk8i.s:277    .text.startup.main:0000000000000062 .L0 
/var/folders/v8/5w7qrjpd37x60gtz_mwnrxpr0000gn/T//ccPlLk8i.s:278    .text.startup.main:0000000000000062 .L0 
/var/folders/v8/5w7qrjpd37x60gtz_mwnrxpr0000gn/T//ccPlLk8i.s:279    .text.startup.main:0000000000000062 .L0 
/var/folders/v8/5w7qrjpd37x60gtz_mwnrxpr0000gn/T//ccPlLk8i.s:284    .text.startup.main:000000000000006c .L0 
/var/folders/v8/5w7qrjpd37x60gtz_mwnrxpr0000gn/T//ccPlLk8i.s:285    .text.startup.main:000000000000006c .L0 
/var/folders/v8/5w7qrjpd37x60gtz_mwnrxpr0000gn/T//ccPlLk8i.s:291    .text.startup.main:0000000000000078 .L0 
/var/folders/v8/5w7qrjpd37x60gtz_mwnrxpr0000gn/T//ccPlLk8i.s:293    .text.startup.main:000000000000007a .L0 
/var/folders/v8/5w7qrjpd37x60gtz_mwnrxpr0000gn/T//ccPlLk8i.s:296    .text.startup.main:000000000000007e .L0 
/var/folders/v8/5w7qrjpd37x60gtz_mwnrxpr0000gn/T//ccPlLk8i.s:297    .text.startup.main:000000000000007e .L0 
/var/folders/v8/5w7qrjpd37x60gtz_mwnrxpr0000gn/T//ccPlLk8i.s:298    .text.startup.main:000000000000007e .L0 
/var/folders/v8/5w7qrjpd37x60gtz_mwnrxpr0000gn/T//ccPlLk8i.s:301    .text.startup.main:0000000000000080 .L0 
/var/folders/v8/5w7qrjpd37x60gtz_mwnrxpr0000gn/T//ccPlLk8i.s:312    .text.startup.main:000000000000009e .L0 
/var/folders/v8/5w7qrjpd37x60gtz_mwnrxpr0000gn/T//ccPlLk8i.s:313    .text.startup.main:000000000000009e .L0 
/var/folders/v8/5w7qrjpd37x60gtz_mwnrxpr0000gn/T//ccPlLk8i.s:318    .text.startup.main:00000000000000aa .L0 
GAS LISTING /var/folders/v8/5w7qrjpd37x60gtz_mwnrxpr0000gn/T//ccPlLk8i.s 			page 15


/var/folders/v8/5w7qrjpd37x60gtz_mwnrxpr0000gn/T//ccPlLk8i.s:320    .text.startup.main:00000000000000ac .L0 
/var/folders/v8/5w7qrjpd37x60gtz_mwnrxpr0000gn/T//ccPlLk8i.s:327    .text.startup.main:00000000000000c2 .L0 
/var/folders/v8/5w7qrjpd37x60gtz_mwnrxpr0000gn/T//ccPlLk8i.s:328    .text.startup.main:00000000000000c2 .L0 
/var/folders/v8/5w7qrjpd37x60gtz_mwnrxpr0000gn/T//ccPlLk8i.s:331    .text.startup.main:00000000000000c4 .L0 
/var/folders/v8/5w7qrjpd37x60gtz_mwnrxpr0000gn/T//ccPlLk8i.s:332    .text.startup.main:00000000000000c4 .L0 
/var/folders/v8/5w7qrjpd37x60gtz_mwnrxpr0000gn/T//ccPlLk8i.s:333    .text.startup.main:00000000000000c4 .L0 
/var/folders/v8/5w7qrjpd37x60gtz_mwnrxpr0000gn/T//ccPlLk8i.s:335    .text.startup.main:00000000000000c8 .L0 
/var/folders/v8/5w7qrjpd37x60gtz_mwnrxpr0000gn/T//ccPlLk8i.s:340    .text.startup.main:00000000000000ce .L0 
/var/folders/v8/5w7qrjpd37x60gtz_mwnrxpr0000gn/T//ccPlLk8i.s:341    .text.startup.main:00000000000000ce .L0 
/var/folders/v8/5w7qrjpd37x60gtz_mwnrxpr0000gn/T//ccPlLk8i.s:342    .text.startup.main:00000000000000ce .L0 
/var/folders/v8/5w7qrjpd37x60gtz_mwnrxpr0000gn/T//ccPlLk8i.s:343    .text.startup.main:00000000000000ce .L0 
/var/folders/v8/5w7qrjpd37x60gtz_mwnrxpr0000gn/T//ccPlLk8i.s:344    .text.startup.main:00000000000000ce .L0 
/var/folders/v8/5w7qrjpd37x60gtz_mwnrxpr0000gn/T//ccPlLk8i.s:348    .text.startup.main:00000000000000d8 .L0 
/var/folders/v8/5w7qrjpd37x60gtz_mwnrxpr0000gn/T//ccPlLk8i.s:350    .text.startup.main:00000000000000dc .L0 
/var/folders/v8/5w7qrjpd37x60gtz_mwnrxpr0000gn/T//ccPlLk8i.s:352    .text.startup.main:00000000000000de .L0 
/var/folders/v8/5w7qrjpd37x60gtz_mwnrxpr0000gn/T//ccPlLk8i.s:354    .text.startup.main:00000000000000e2 .L0 
/var/folders/v8/5w7qrjpd37x60gtz_mwnrxpr0000gn/T//ccPlLk8i.s:364    .text.startup.main:00000000000000fa .L0 
/var/folders/v8/5w7qrjpd37x60gtz_mwnrxpr0000gn/T//ccPlLk8i.s:366    .text.startup.main:00000000000000fc .L0 
/var/folders/v8/5w7qrjpd37x60gtz_mwnrxpr0000gn/T//ccPlLk8i.s:369    .text.startup.main:00000000000000fe .L0 
/var/folders/v8/5w7qrjpd37x60gtz_mwnrxpr0000gn/T//ccPlLk8i.s:376    .text.startup.main:0000000000000112 .L0 
/var/folders/v8/5w7qrjpd37x60gtz_mwnrxpr0000gn/T//ccPlLk8i.s:383    .text.startup.main:0000000000000122 .L0 
/var/folders/v8/5w7qrjpd37x60gtz_mwnrxpr0000gn/T//ccPlLk8i.s:388    .text.startup.main:000000000000012c .L0 
/var/folders/v8/5w7qrjpd37x60gtz_mwnrxpr0000gn/T//ccPlLk8i.s:389    .text.startup.main:000000000000012c .L0 
/var/folders/v8/5w7qrjpd37x60gtz_mwnrxpr0000gn/T//ccPlLk8i.s:392    .text.startup.main:0000000000000130 .L0 
/var/folders/v8/5w7qrjpd37x60gtz_mwnrxpr0000gn/T//ccPlLk8i.s:396    .text.startup.main:000000000000013a .L0 
/var/folders/v8/5w7qrjpd37x60gtz_mwnrxpr0000gn/T//ccPlLk8i.s:397    .text.startup.main:000000000000013c .L0 
/var/folders/v8/5w7qrjpd37x60gtz_mwnrxpr0000gn/T//ccPlLk8i.s:127    .text.init_ADC_B0:00000000000000f0 .L0 
/var/folders/v8/5w7qrjpd37x60gtz_mwnrxpr0000gn/T//ccPlLk8i.s:193    .text.initCMG:000000000000006c .L0 
/var/folders/v8/5w7qrjpd37x60gtz_mwnrxpr0000gn/T//ccPlLk8i.s:400    .text.startup.main:000000000000013c .L0 
                     .debug_frame:0000000000000000 .L0 
/var/folders/v8/5w7qrjpd37x60gtz_mwnrxpr0000gn/T//ccPlLk8i.s:402    .rodata.main.cst8:0000000000000000 .LC0
/var/folders/v8/5w7qrjpd37x60gtz_mwnrxpr0000gn/T//ccPlLk8i.s:405    .rodata.main.cst8:0000000000000008 .LC1
/var/folders/v8/5w7qrjpd37x60gtz_mwnrxpr0000gn/T//ccPlLk8i.s:338    .text.startup.main:00000000000000ce .L7
/var/folders/v8/5w7qrjpd37x60gtz_mwnrxpr0000gn/T//ccPlLk8i.s:268    .text.startup.main:000000000000005e .L8
/var/folders/v8/5w7qrjpd37x60gtz_mwnrxpr0000gn/T//ccPlLk8i.s:2740   .debug_abbrev:0000000000000000 .Ldebug_abbrev0
/var/folders/v8/5w7qrjpd37x60gtz_mwnrxpr0000gn/T//ccPlLk8i.s:3850   .debug_str:0000000000000473 .LASF203
/var/folders/v8/5w7qrjpd37x60gtz_mwnrxpr0000gn/T//ccPlLk8i.s:3816   .debug_str:00000000000003aa .LASF204
/var/folders/v8/5w7qrjpd37x60gtz_mwnrxpr0000gn/T//ccPlLk8i.s:3802   .debug_str:000000000000032f .LASF205
/var/folders/v8/5w7qrjpd37x60gtz_mwnrxpr0000gn/T//ccPlLk8i.s:3622   .debug_ranges:0000000000000000 .Ldebug_ranges0
/var/folders/v8/5w7qrjpd37x60gtz_mwnrxpr0000gn/T//ccPlLk8i.s:3632   .debug_line:0000000000000000 .Ldebug_line0
/var/folders/v8/5w7qrjpd37x60gtz_mwnrxpr0000gn/T//ccPlLk8i.s:3956   .debug_str:000000000000071c .LASF0
/var/folders/v8/5w7qrjpd37x60gtz_mwnrxpr0000gn/T//ccPlLk8i.s:3966   .debug_str:000000000000073d .LASF1
/var/folders/v8/5w7qrjpd37x60gtz_mwnrxpr0000gn/T//ccPlLk8i.s:3702   .debug_str:000000000000015d .LASF2
/var/folders/v8/5w7qrjpd37x60gtz_mwnrxpr0000gn/T//ccPlLk8i.s:3658   .debug_str:0000000000000066 .LASF6
/var/folders/v8/5w7qrjpd37x60gtz_mwnrxpr0000gn/T//ccPlLk8i.s:3892   .debug_str:00000000000005cb .LASF3
/var/folders/v8/5w7qrjpd37x60gtz_mwnrxpr0000gn/T//ccPlLk8i.s:3970   .debug_str:0000000000000753 .LASF4
/var/folders/v8/5w7qrjpd37x60gtz_mwnrxpr0000gn/T//ccPlLk8i.s:3918   .debug_str:0000000000000647 .LASF5
/var/folders/v8/5w7qrjpd37x60gtz_mwnrxpr0000gn/T//ccPlLk8i.s:3826   .debug_str:00000000000003f0 .LASF7
/var/folders/v8/5w7qrjpd37x60gtz_mwnrxpr0000gn/T//ccPlLk8i.s:3724   .debug_str:00000000000001c2 .LASF8
/var/folders/v8/5w7qrjpd37x60gtz_mwnrxpr0000gn/T//ccPlLk8i.s:3756   .debug_str:0000000000000256 .LASF9
/var/folders/v8/5w7qrjpd37x60gtz_mwnrxpr0000gn/T//ccPlLk8i.s:3784   .debug_str:00000000000002d5 .LASF10
/var/folders/v8/5w7qrjpd37x60gtz_mwnrxpr0000gn/T//ccPlLk8i.s:3740   .debug_str:0000000000000201 .LASF11
/var/folders/v8/5w7qrjpd37x60gtz_mwnrxpr0000gn/T//ccPlLk8i.s:3672   .debug_str:00000000000000c2 .LASF12
/var/folders/v8/5w7qrjpd37x60gtz_mwnrxpr0000gn/T//ccPlLk8i.s:3974   .debug_str:0000000000000765 .LASF13
/var/folders/v8/5w7qrjpd37x60gtz_mwnrxpr0000gn/T//ccPlLk8i.s:3890   .debug_str:00000000000005c3 .LASF14
/var/folders/v8/5w7qrjpd37x60gtz_mwnrxpr0000gn/T//ccPlLk8i.s:4002   .debug_str:0000000000000828 .LASF15
/var/folders/v8/5w7qrjpd37x60gtz_mwnrxpr0000gn/T//ccPlLk8i.s:3776   .debug_str:00000000000002a9 .LASF164
GAS LISTING /var/folders/v8/5w7qrjpd37x60gtz_mwnrxpr0000gn/T//ccPlLk8i.s 			page 16


/var/folders/v8/5w7qrjpd37x60gtz_mwnrxpr0000gn/T//ccPlLk8i.s:3926   .debug_str:0000000000000671 .LASF16
/var/folders/v8/5w7qrjpd37x60gtz_mwnrxpr0000gn/T//ccPlLk8i.s:3736   .debug_str:00000000000001f0 .LASF17
/var/folders/v8/5w7qrjpd37x60gtz_mwnrxpr0000gn/T//ccPlLk8i.s:3642   .debug_str:0000000000000027 .LASF18
/var/folders/v8/5w7qrjpd37x60gtz_mwnrxpr0000gn/T//ccPlLk8i.s:3704   .debug_str:0000000000000169 .LASF19
/var/folders/v8/5w7qrjpd37x60gtz_mwnrxpr0000gn/T//ccPlLk8i.s:3984   .debug_str:00000000000007ad .LASF20
/var/folders/v8/5w7qrjpd37x60gtz_mwnrxpr0000gn/T//ccPlLk8i.s:3968   .debug_str:000000000000074a .LASF21
/var/folders/v8/5w7qrjpd37x60gtz_mwnrxpr0000gn/T//ccPlLk8i.s:3738   .debug_str:00000000000001f7 .LASF22
/var/folders/v8/5w7qrjpd37x60gtz_mwnrxpr0000gn/T//ccPlLk8i.s:3876   .debug_str:0000000000000567 .LASF23
/var/folders/v8/5w7qrjpd37x60gtz_mwnrxpr0000gn/T//ccPlLk8i.s:3878   .debug_str:0000000000000572 .LASF24
/var/folders/v8/5w7qrjpd37x60gtz_mwnrxpr0000gn/T//ccPlLk8i.s:3880   .debug_str:000000000000057d .LASF25
/var/folders/v8/5w7qrjpd37x60gtz_mwnrxpr0000gn/T//ccPlLk8i.s:3882   .debug_str:0000000000000588 .LASF26
/var/folders/v8/5w7qrjpd37x60gtz_mwnrxpr0000gn/T//ccPlLk8i.s:3884   .debug_str:0000000000000593 .LASF27
/var/folders/v8/5w7qrjpd37x60gtz_mwnrxpr0000gn/T//ccPlLk8i.s:3886   .debug_str:000000000000059e .LASF28
/var/folders/v8/5w7qrjpd37x60gtz_mwnrxpr0000gn/T//ccPlLk8i.s:3982   .debug_str:00000000000007a3 .LASF29
/var/folders/v8/5w7qrjpd37x60gtz_mwnrxpr0000gn/T//ccPlLk8i.s:3638   .debug_str:0000000000000015 .LASF30
/var/folders/v8/5w7qrjpd37x60gtz_mwnrxpr0000gn/T//ccPlLk8i.s:3640   .debug_str:000000000000001e .LASF31
/var/folders/v8/5w7qrjpd37x60gtz_mwnrxpr0000gn/T//ccPlLk8i.s:3854   .debug_str:00000000000004f8 .LASF32
/var/folders/v8/5w7qrjpd37x60gtz_mwnrxpr0000gn/T//ccPlLk8i.s:3856   .debug_str:0000000000000503 .LASF33
/var/folders/v8/5w7qrjpd37x60gtz_mwnrxpr0000gn/T//ccPlLk8i.s:3674   .debug_str:00000000000000d9 .LASF34
/var/folders/v8/5w7qrjpd37x60gtz_mwnrxpr0000gn/T//ccPlLk8i.s:3676   .debug_str:00000000000000e3 .LASF35
/var/folders/v8/5w7qrjpd37x60gtz_mwnrxpr0000gn/T//ccPlLk8i.s:4022   .debug_str:0000000000000897 .LASF36
/var/folders/v8/5w7qrjpd37x60gtz_mwnrxpr0000gn/T//ccPlLk8i.s:3948   .debug_str:00000000000006f8 .LASF37
/var/folders/v8/5w7qrjpd37x60gtz_mwnrxpr0000gn/T//ccPlLk8i.s:3752   .debug_str:0000000000000248 .LASF38
/var/folders/v8/5w7qrjpd37x60gtz_mwnrxpr0000gn/T//ccPlLk8i.s:3696   .debug_str:0000000000000146 .LASF39
/var/folders/v8/5w7qrjpd37x60gtz_mwnrxpr0000gn/T//ccPlLk8i.s:3954   .debug_str:0000000000000713 .LASF40
/var/folders/v8/5w7qrjpd37x60gtz_mwnrxpr0000gn/T//ccPlLk8i.s:3996   .debug_str:00000000000007f2 .LASF41
/var/folders/v8/5w7qrjpd37x60gtz_mwnrxpr0000gn/T//ccPlLk8i.s:3804   .debug_str:0000000000000370 .LASF42
/var/folders/v8/5w7qrjpd37x60gtz_mwnrxpr0000gn/T//ccPlLk8i.s:3794   .debug_str:000000000000030f .LASF43
/var/folders/v8/5w7qrjpd37x60gtz_mwnrxpr0000gn/T//ccPlLk8i.s:3654   .debug_str:0000000000000057 .LASF44
/var/folders/v8/5w7qrjpd37x60gtz_mwnrxpr0000gn/T//ccPlLk8i.s:3682   .debug_str:00000000000000f7 .LASF45
/var/folders/v8/5w7qrjpd37x60gtz_mwnrxpr0000gn/T//ccPlLk8i.s:3778   .debug_str:00000000000002b9 .LASF46
/var/folders/v8/5w7qrjpd37x60gtz_mwnrxpr0000gn/T//ccPlLk8i.s:3780   .debug_str:00000000000002c3 .LASF47
/var/folders/v8/5w7qrjpd37x60gtz_mwnrxpr0000gn/T//ccPlLk8i.s:3686   .debug_str:000000000000010c .LASF48
/var/folders/v8/5w7qrjpd37x60gtz_mwnrxpr0000gn/T//ccPlLk8i.s:3688   .debug_str:0000000000000116 .LASF49
/var/folders/v8/5w7qrjpd37x60gtz_mwnrxpr0000gn/T//ccPlLk8i.s:3790   .debug_str:00000000000002fd .LASF50
/var/folders/v8/5w7qrjpd37x60gtz_mwnrxpr0000gn/T//ccPlLk8i.s:3792   .debug_str:0000000000000306 .LASF51
/var/folders/v8/5w7qrjpd37x60gtz_mwnrxpr0000gn/T//ccPlLk8i.s:3874   .debug_str:000000000000055c .LASF52
/var/folders/v8/5w7qrjpd37x60gtz_mwnrxpr0000gn/T//ccPlLk8i.s:3636   .debug_str:000000000000000c .LASF53
/var/folders/v8/5w7qrjpd37x60gtz_mwnrxpr0000gn/T//ccPlLk8i.s:3852   .debug_str:00000000000004ed .LASF54
/var/folders/v8/5w7qrjpd37x60gtz_mwnrxpr0000gn/T//ccPlLk8i.s:3838   .debug_str:000000000000042e .LASF55
/var/folders/v8/5w7qrjpd37x60gtz_mwnrxpr0000gn/T//ccPlLk8i.s:3864   .debug_str:0000000000000530 .LASF56
/var/folders/v8/5w7qrjpd37x60gtz_mwnrxpr0000gn/T//ccPlLk8i.s:3698   .debug_str:000000000000014f .LASF57
/var/folders/v8/5w7qrjpd37x60gtz_mwnrxpr0000gn/T//ccPlLk8i.s:3952   .debug_str:000000000000070b .LASF58
/var/folders/v8/5w7qrjpd37x60gtz_mwnrxpr0000gn/T//ccPlLk8i.s:4014   .debug_str:000000000000085e .LASF59
/var/folders/v8/5w7qrjpd37x60gtz_mwnrxpr0000gn/T//ccPlLk8i.s:3812   .debug_str:0000000000000399 .LASF60
/var/folders/v8/5w7qrjpd37x60gtz_mwnrxpr0000gn/T//ccPlLk8i.s:3774   .debug_str:00000000000002a2 .LASF61
/var/folders/v8/5w7qrjpd37x60gtz_mwnrxpr0000gn/T//ccPlLk8i.s:3832   .debug_str:000000000000040b .LASF62
/var/folders/v8/5w7qrjpd37x60gtz_mwnrxpr0000gn/T//ccPlLk8i.s:3944   .debug_str:00000000000006ea .LASF63
/var/folders/v8/5w7qrjpd37x60gtz_mwnrxpr0000gn/T//ccPlLk8i.s:3872   .debug_str:0000000000000551 .LASF64
/var/folders/v8/5w7qrjpd37x60gtz_mwnrxpr0000gn/T//ccPlLk8i.s:3992   .debug_str:00000000000007dd .LASF65
/var/folders/v8/5w7qrjpd37x60gtz_mwnrxpr0000gn/T//ccPlLk8i.s:3836   .debug_str:000000000000041c .LASF66
/var/folders/v8/5w7qrjpd37x60gtz_mwnrxpr0000gn/T//ccPlLk8i.s:3898   .debug_str:00000000000005e8 .LASF67
/var/folders/v8/5w7qrjpd37x60gtz_mwnrxpr0000gn/T//ccPlLk8i.s:3766   .debug_str:0000000000000282 .LASF72
/var/folders/v8/5w7qrjpd37x60gtz_mwnrxpr0000gn/T//ccPlLk8i.s:3978   .debug_str:0000000000000790 .LASF68
/var/folders/v8/5w7qrjpd37x60gtz_mwnrxpr0000gn/T//ccPlLk8i.s:3936   .debug_str:00000000000006b9 .LASF69
/var/folders/v8/5w7qrjpd37x60gtz_mwnrxpr0000gn/T//ccPlLk8i.s:3760   .debug_str:0000000000000268 .LASF70
/var/folders/v8/5w7qrjpd37x60gtz_mwnrxpr0000gn/T//ccPlLk8i.s:4008   .debug_str:0000000000000848 .LASF71
GAS LISTING /var/folders/v8/5w7qrjpd37x60gtz_mwnrxpr0000gn/T//ccPlLk8i.s 			page 17


/var/folders/v8/5w7qrjpd37x60gtz_mwnrxpr0000gn/T//ccPlLk8i.s:3772   .debug_str:000000000000029d .LASF73
/var/folders/v8/5w7qrjpd37x60gtz_mwnrxpr0000gn/T//ccPlLk8i.s:3694   .debug_str:000000000000013d .LASF74
/var/folders/v8/5w7qrjpd37x60gtz_mwnrxpr0000gn/T//ccPlLk8i.s:4032   .debug_str:00000000000008c8 .LASF75
/var/folders/v8/5w7qrjpd37x60gtz_mwnrxpr0000gn/T//ccPlLk8i.s:3712   .debug_str:000000000000018a .LASF76
/var/folders/v8/5w7qrjpd37x60gtz_mwnrxpr0000gn/T//ccPlLk8i.s:4050   .debug_str:000000000000090e .LASF77
/var/folders/v8/5w7qrjpd37x60gtz_mwnrxpr0000gn/T//ccPlLk8i.s:3842   .debug_str:0000000000000445 .LASF78
/var/folders/v8/5w7qrjpd37x60gtz_mwnrxpr0000gn/T//ccPlLk8i.s:3830   .debug_str:0000000000000401 .LASF79
/var/folders/v8/5w7qrjpd37x60gtz_mwnrxpr0000gn/T//ccPlLk8i.s:3950   .debug_str:0000000000000701 .LASF80
/var/folders/v8/5w7qrjpd37x60gtz_mwnrxpr0000gn/T//ccPlLk8i.s:4044   .debug_str:00000000000008f6 .LASF81
/var/folders/v8/5w7qrjpd37x60gtz_mwnrxpr0000gn/T//ccPlLk8i.s:4028   .debug_str:00000000000008ae .LASF82
/var/folders/v8/5w7qrjpd37x60gtz_mwnrxpr0000gn/T//ccPlLk8i.s:3716   .debug_str:0000000000000199 .LASF83
/var/folders/v8/5w7qrjpd37x60gtz_mwnrxpr0000gn/T//ccPlLk8i.s:3644   .debug_str:0000000000000030 .LASF84
/var/folders/v8/5w7qrjpd37x60gtz_mwnrxpr0000gn/T//ccPlLk8i.s:3634   .debug_str:0000000000000000 .LASF85
/var/folders/v8/5w7qrjpd37x60gtz_mwnrxpr0000gn/T//ccPlLk8i.s:3986   .debug_str:00000000000007b5 .LASF86
/var/folders/v8/5w7qrjpd37x60gtz_mwnrxpr0000gn/T//ccPlLk8i.s:3730   .debug_str:00000000000001d7 .LASF87
/var/folders/v8/5w7qrjpd37x60gtz_mwnrxpr0000gn/T//ccPlLk8i.s:3858   .debug_str:000000000000050e .LASF88
/var/folders/v8/5w7qrjpd37x60gtz_mwnrxpr0000gn/T//ccPlLk8i.s:3924   .debug_str:000000000000066c .LASF89
/var/folders/v8/5w7qrjpd37x60gtz_mwnrxpr0000gn/T//ccPlLk8i.s:3754   .debug_str:0000000000000251 .LASF90
/var/folders/v8/5w7qrjpd37x60gtz_mwnrxpr0000gn/T//ccPlLk8i.s:3904   .debug_str:0000000000000616 .LASF91
/var/folders/v8/5w7qrjpd37x60gtz_mwnrxpr0000gn/T//ccPlLk8i.s:3710   .debug_str:0000000000000184 .LASF92
/var/folders/v8/5w7qrjpd37x60gtz_mwnrxpr0000gn/T//ccPlLk8i.s:3964   .debug_str:0000000000000737 .LASF93
/var/folders/v8/5w7qrjpd37x60gtz_mwnrxpr0000gn/T//ccPlLk8i.s:3912   .debug_str:0000000000000631 .LASF94
/var/folders/v8/5w7qrjpd37x60gtz_mwnrxpr0000gn/T//ccPlLk8i.s:3728   .debug_str:00000000000001d0 .LASF95
/var/folders/v8/5w7qrjpd37x60gtz_mwnrxpr0000gn/T//ccPlLk8i.s:3786   .debug_str:00000000000002e7 .LASF96
/var/folders/v8/5w7qrjpd37x60gtz_mwnrxpr0000gn/T//ccPlLk8i.s:4048   .debug_str:0000000000000905 .LASF97
/var/folders/v8/5w7qrjpd37x60gtz_mwnrxpr0000gn/T//ccPlLk8i.s:3720   .debug_str:00000000000001b2 .LASF98
/var/folders/v8/5w7qrjpd37x60gtz_mwnrxpr0000gn/T//ccPlLk8i.s:3770   .debug_str:0000000000000297 .LASF99
/var/folders/v8/5w7qrjpd37x60gtz_mwnrxpr0000gn/T//ccPlLk8i.s:3828   .debug_str:00000000000003fa .LASF100
/var/folders/v8/5w7qrjpd37x60gtz_mwnrxpr0000gn/T//ccPlLk8i.s:3946   .debug_str:00000000000006f2 .LASF101
/var/folders/v8/5w7qrjpd37x60gtz_mwnrxpr0000gn/T//ccPlLk8i.s:3700   .debug_str:0000000000000156 .LASF102
/var/folders/v8/5w7qrjpd37x60gtz_mwnrxpr0000gn/T//ccPlLk8i.s:3708   .debug_str:000000000000017e .LASF103
/var/folders/v8/5w7qrjpd37x60gtz_mwnrxpr0000gn/T//ccPlLk8i.s:4024   .debug_str:00000000000008a0 .LASF104
/var/folders/v8/5w7qrjpd37x60gtz_mwnrxpr0000gn/T//ccPlLk8i.s:3962   .debug_str:000000000000072e .LASF105
/var/folders/v8/5w7qrjpd37x60gtz_mwnrxpr0000gn/T//ccPlLk8i.s:3746   .debug_str:0000000000000221 .LASF106
/var/folders/v8/5w7qrjpd37x60gtz_mwnrxpr0000gn/T//ccPlLk8i.s:3796   .debug_str:0000000000000317 .LASF107
/var/folders/v8/5w7qrjpd37x60gtz_mwnrxpr0000gn/T//ccPlLk8i.s:3820   .debug_str:00000000000003cd .LASF108
/var/folders/v8/5w7qrjpd37x60gtz_mwnrxpr0000gn/T//ccPlLk8i.s:3914   .debug_str:0000000000000639 .LASF109
/var/folders/v8/5w7qrjpd37x60gtz_mwnrxpr0000gn/T//ccPlLk8i.s:3906   .debug_str:000000000000061d .LASF110
/var/folders/v8/5w7qrjpd37x60gtz_mwnrxpr0000gn/T//ccPlLk8i.s:3938   .debug_str:00000000000006c1 .LASF111
/var/folders/v8/5w7qrjpd37x60gtz_mwnrxpr0000gn/T//ccPlLk8i.s:3958   .debug_str:0000000000000722 .LASF112
/var/folders/v8/5w7qrjpd37x60gtz_mwnrxpr0000gn/T//ccPlLk8i.s:3732   .debug_str:00000000000001df .LASF113
/var/folders/v8/5w7qrjpd37x60gtz_mwnrxpr0000gn/T//ccPlLk8i.s:3972   .debug_str:000000000000075d .LASF114
/var/folders/v8/5w7qrjpd37x60gtz_mwnrxpr0000gn/T//ccPlLk8i.s:3764   .debug_str:000000000000027a .LASF115
/var/folders/v8/5w7qrjpd37x60gtz_mwnrxpr0000gn/T//ccPlLk8i.s:3922   .debug_str:0000000000000667 .LASF116
/var/folders/v8/5w7qrjpd37x60gtz_mwnrxpr0000gn/T//ccPlLk8i.s:3652   .debug_str:000000000000004c .LASF117
/var/folders/v8/5w7qrjpd37x60gtz_mwnrxpr0000gn/T//ccPlLk8i.s:3932   .debug_str:000000000000068b .LASF118
/var/folders/v8/5w7qrjpd37x60gtz_mwnrxpr0000gn/T//ccPlLk8i.s:3928   .debug_str:0000000000000679 .LASF119
/var/folders/v8/5w7qrjpd37x60gtz_mwnrxpr0000gn/T//ccPlLk8i.s:3860   .debug_str:0000000000000516 .LASF120
/var/folders/v8/5w7qrjpd37x60gtz_mwnrxpr0000gn/T//ccPlLk8i.s:3930   .debug_str:0000000000000681 .LASF121
/var/folders/v8/5w7qrjpd37x60gtz_mwnrxpr0000gn/T//ccPlLk8i.s:3810   .debug_str:0000000000000391 .LASF122
/var/folders/v8/5w7qrjpd37x60gtz_mwnrxpr0000gn/T//ccPlLk8i.s:3734   .debug_str:00000000000001e6 .LASF123
/var/folders/v8/5w7qrjpd37x60gtz_mwnrxpr0000gn/T//ccPlLk8i.s:4040   .debug_str:00000000000008ec .LASF124
/var/folders/v8/5w7qrjpd37x60gtz_mwnrxpr0000gn/T//ccPlLk8i.s:3870   .debug_str:0000000000000547 .LASF125
/var/folders/v8/5w7qrjpd37x60gtz_mwnrxpr0000gn/T//ccPlLk8i.s:3782   .debug_str:00000000000002cd .LASF126
/var/folders/v8/5w7qrjpd37x60gtz_mwnrxpr0000gn/T//ccPlLk8i.s:3744   .debug_str:0000000000000219 .LASF127
/var/folders/v8/5w7qrjpd37x60gtz_mwnrxpr0000gn/T//ccPlLk8i.s:3726   .debug_str:00000000000001cb .LASF128
/var/folders/v8/5w7qrjpd37x60gtz_mwnrxpr0000gn/T//ccPlLk8i.s:3662   .debug_str:000000000000007c .LASF129
GAS LISTING /var/folders/v8/5w7qrjpd37x60gtz_mwnrxpr0000gn/T//ccPlLk8i.s 			page 18


/var/folders/v8/5w7qrjpd37x60gtz_mwnrxpr0000gn/T//ccPlLk8i.s:4018   .debug_str:0000000000000871 .LASF130
/var/folders/v8/5w7qrjpd37x60gtz_mwnrxpr0000gn/T//ccPlLk8i.s:3722   .debug_str:00000000000001ba .LASF131
/var/folders/v8/5w7qrjpd37x60gtz_mwnrxpr0000gn/T//ccPlLk8i.s:3714   .debug_str:0000000000000194 .LASF132
/var/folders/v8/5w7qrjpd37x60gtz_mwnrxpr0000gn/T//ccPlLk8i.s:3960   .debug_str:0000000000000729 .LASF133
/var/folders/v8/5w7qrjpd37x60gtz_mwnrxpr0000gn/T//ccPlLk8i.s:3908   .debug_str:0000000000000625 .LASF134
/var/folders/v8/5w7qrjpd37x60gtz_mwnrxpr0000gn/T//ccPlLk8i.s:4010   .debug_str:000000000000084d .LASF135
/var/folders/v8/5w7qrjpd37x60gtz_mwnrxpr0000gn/T//ccPlLk8i.s:3798   .debug_str:000000000000031d .LASF136
/var/folders/v8/5w7qrjpd37x60gtz_mwnrxpr0000gn/T//ccPlLk8i.s:3894   .debug_str:00000000000005d9 .LASF137
/var/folders/v8/5w7qrjpd37x60gtz_mwnrxpr0000gn/T//ccPlLk8i.s:3646   .debug_str:0000000000000038 .LASF138
/var/folders/v8/5w7qrjpd37x60gtz_mwnrxpr0000gn/T//ccPlLk8i.s:3940   .debug_str:00000000000006c8 .LASF139
/var/folders/v8/5w7qrjpd37x60gtz_mwnrxpr0000gn/T//ccPlLk8i.s:3824   .debug_str:00000000000003ea .LASF140
/var/folders/v8/5w7qrjpd37x60gtz_mwnrxpr0000gn/T//ccPlLk8i.s:3990   .debug_str:00000000000007d8 .LASF141
/var/folders/v8/5w7qrjpd37x60gtz_mwnrxpr0000gn/T//ccPlLk8i.s:4004   .debug_str:0000000000000831 .LASF142
/var/folders/v8/5w7qrjpd37x60gtz_mwnrxpr0000gn/T//ccPlLk8i.s:3980   .debug_str:0000000000000796 .LASF143
/var/folders/v8/5w7qrjpd37x60gtz_mwnrxpr0000gn/T//ccPlLk8i.s:3808   .debug_str:0000000000000384 .LASF144
/var/folders/v8/5w7qrjpd37x60gtz_mwnrxpr0000gn/T//ccPlLk8i.s:4030   .debug_str:00000000000008b9 .LASF145
/var/folders/v8/5w7qrjpd37x60gtz_mwnrxpr0000gn/T//ccPlLk8i.s:3862   .debug_str:0000000000000521 .LASF146
/var/folders/v8/5w7qrjpd37x60gtz_mwnrxpr0000gn/T//ccPlLk8i.s:3800   .debug_str:0000000000000324 .LASF147
/var/folders/v8/5w7qrjpd37x60gtz_mwnrxpr0000gn/T//ccPlLk8i.s:4036   .debug_str:00000000000008d9 .LASF148
/var/folders/v8/5w7qrjpd37x60gtz_mwnrxpr0000gn/T//ccPlLk8i.s:3920   .debug_str:000000000000065a .LASF149
/var/folders/v8/5w7qrjpd37x60gtz_mwnrxpr0000gn/T//ccPlLk8i.s:4038   .debug_str:00000000000008de .LASF150
/var/folders/v8/5w7qrjpd37x60gtz_mwnrxpr0000gn/T//ccPlLk8i.s:3692   .debug_str:000000000000012f .LASF151
/var/folders/v8/5w7qrjpd37x60gtz_mwnrxpr0000gn/T//ccPlLk8i.s:4016   .debug_str:0000000000000867 .LASF152
/var/folders/v8/5w7qrjpd37x60gtz_mwnrxpr0000gn/T//ccPlLk8i.s:3806   .debug_str:0000000000000378 .LASF153
/var/folders/v8/5w7qrjpd37x60gtz_mwnrxpr0000gn/T//ccPlLk8i.s:3994   .debug_str:00000000000007e5 .LASF154
/var/folders/v8/5w7qrjpd37x60gtz_mwnrxpr0000gn/T//ccPlLk8i.s:3750   .debug_str:000000000000023a .LASF155
/var/folders/v8/5w7qrjpd37x60gtz_mwnrxpr0000gn/T//ccPlLk8i.s:3690   .debug_str:0000000000000120 .LASF156
/var/folders/v8/5w7qrjpd37x60gtz_mwnrxpr0000gn/T//ccPlLk8i.s:3748   .debug_str:0000000000000229 .LASF157
/var/folders/v8/5w7qrjpd37x60gtz_mwnrxpr0000gn/T//ccPlLk8i.s:3668   .debug_str:00000000000000a2 .LASF158
/var/folders/v8/5w7qrjpd37x60gtz_mwnrxpr0000gn/T//ccPlLk8i.s:3670   .debug_str:00000000000000b1 .LASF159
/var/folders/v8/5w7qrjpd37x60gtz_mwnrxpr0000gn/T//ccPlLk8i.s:3896   .debug_str:00000000000005df .LASF160
/var/folders/v8/5w7qrjpd37x60gtz_mwnrxpr0000gn/T//ccPlLk8i.s:3846   .debug_str:0000000000000466 .LASF161
/var/folders/v8/5w7qrjpd37x60gtz_mwnrxpr0000gn/T//ccPlLk8i.s:3834   .debug_str:0000000000000413 .LASF162
/var/folders/v8/5w7qrjpd37x60gtz_mwnrxpr0000gn/T//ccPlLk8i.s:4026   .debug_str:00000000000008a6 .LASF163
/var/folders/v8/5w7qrjpd37x60gtz_mwnrxpr0000gn/T//ccPlLk8i.s:3684   .debug_str:0000000000000101 .LASF206
/var/folders/v8/5w7qrjpd37x60gtz_mwnrxpr0000gn/T//ccPlLk8i.s:3762   .debug_str:000000000000026e .LASF165
/var/folders/v8/5w7qrjpd37x60gtz_mwnrxpr0000gn/T//ccPlLk8i.s:4000   .debug_str:0000000000000815 .LASF166
/var/folders/v8/5w7qrjpd37x60gtz_mwnrxpr0000gn/T//ccPlLk8i.s:3664   .debug_str:0000000000000085 .LASF167
/var/folders/v8/5w7qrjpd37x60gtz_mwnrxpr0000gn/T//ccPlLk8i.s:3656   .debug_str:000000000000005e .LASF207
/var/folders/v8/5w7qrjpd37x60gtz_mwnrxpr0000gn/T//ccPlLk8i.s:132    .text.initCMG:0000000000000000 .LFB7
/var/folders/v8/5w7qrjpd37x60gtz_mwnrxpr0000gn/T//ccPlLk8i.s:186    .text.initCMG:000000000000006c .LFE7
/var/folders/v8/5w7qrjpd37x60gtz_mwnrxpr0000gn/T//ccPlLk8i.s:3421   .debug_loc:0000000000000000 .LLST1
/var/folders/v8/5w7qrjpd37x60gtz_mwnrxpr0000gn/T//ccPlLk8i.s:144    .text.initCMG:000000000000000c .LVL16
/var/folders/v8/5w7qrjpd37x60gtz_mwnrxpr0000gn/T//ccPlLk8i.s:147    .text.initCMG:0000000000000014 .LVL17
/var/folders/v8/5w7qrjpd37x60gtz_mwnrxpr0000gn/T//ccPlLk8i.s:151    .text.initCMG:0000000000000020 .LVL18
/var/folders/v8/5w7qrjpd37x60gtz_mwnrxpr0000gn/T//ccPlLk8i.s:155    .text.initCMG:000000000000002c .LVL19
/var/folders/v8/5w7qrjpd37x60gtz_mwnrxpr0000gn/T//ccPlLk8i.s:163    .text.initCMG:0000000000000044 .LVL20
/var/folders/v8/5w7qrjpd37x60gtz_mwnrxpr0000gn/T//ccPlLk8i.s:168    .text.initCMG:0000000000000054 .LVL21
/var/folders/v8/5w7qrjpd37x60gtz_mwnrxpr0000gn/T//ccPlLk8i.s:171    .text.initCMG:000000000000005c .LVL22
/var/folders/v8/5w7qrjpd37x60gtz_mwnrxpr0000gn/T//ccPlLk8i.s:184    .text.initCMG:000000000000006c .LVL23
/var/folders/v8/5w7qrjpd37x60gtz_mwnrxpr0000gn/T//ccPlLk8i.s:3706   .debug_str:0000000000000172 .LASF208
/var/folders/v8/5w7qrjpd37x60gtz_mwnrxpr0000gn/T//ccPlLk8i.s:14     .text.init_ADC_B0:0000000000000000 .LFB6
/var/folders/v8/5w7qrjpd37x60gtz_mwnrxpr0000gn/T//ccPlLk8i.s:125    .text.init_ADC_B0:00000000000000f0 .LFE6
/var/folders/v8/5w7qrjpd37x60gtz_mwnrxpr0000gn/T//ccPlLk8i.s:3439   .debug_loc:000000000000002c .LLST0
/var/folders/v8/5w7qrjpd37x60gtz_mwnrxpr0000gn/T//ccPlLk8i.s:32     .text.init_ADC_B0:0000000000000012 .LVL0
/var/folders/v8/5w7qrjpd37x60gtz_mwnrxpr0000gn/T//ccPlLk8i.s:40     .text.init_ADC_B0:0000000000000028 .LVL1
/var/folders/v8/5w7qrjpd37x60gtz_mwnrxpr0000gn/T//ccPlLk8i.s:44     .text.init_ADC_B0:0000000000000034 .LVL2
GAS LISTING /var/folders/v8/5w7qrjpd37x60gtz_mwnrxpr0000gn/T//ccPlLk8i.s 			page 19


/var/folders/v8/5w7qrjpd37x60gtz_mwnrxpr0000gn/T//ccPlLk8i.s:51     .text.init_ADC_B0:0000000000000042 .LVL3
/var/folders/v8/5w7qrjpd37x60gtz_mwnrxpr0000gn/T//ccPlLk8i.s:55     .text.init_ADC_B0:000000000000004e .LVL4
/var/folders/v8/5w7qrjpd37x60gtz_mwnrxpr0000gn/T//ccPlLk8i.s:59     .text.init_ADC_B0:0000000000000058 .LVL5
/var/folders/v8/5w7qrjpd37x60gtz_mwnrxpr0000gn/T//ccPlLk8i.s:65     .text.init_ADC_B0:0000000000000068 .LVL6
/var/folders/v8/5w7qrjpd37x60gtz_mwnrxpr0000gn/T//ccPlLk8i.s:70     .text.init_ADC_B0:0000000000000076 .LVL7
/var/folders/v8/5w7qrjpd37x60gtz_mwnrxpr0000gn/T//ccPlLk8i.s:76     .text.init_ADC_B0:0000000000000086 .LVL8
/var/folders/v8/5w7qrjpd37x60gtz_mwnrxpr0000gn/T//ccPlLk8i.s:83     .text.init_ADC_B0:0000000000000098 .LVL9
/var/folders/v8/5w7qrjpd37x60gtz_mwnrxpr0000gn/T//ccPlLk8i.s:89     .text.init_ADC_B0:00000000000000aa .LVL10
/var/folders/v8/5w7qrjpd37x60gtz_mwnrxpr0000gn/T//ccPlLk8i.s:95     .text.init_ADC_B0:00000000000000ba .LVL11
/var/folders/v8/5w7qrjpd37x60gtz_mwnrxpr0000gn/T//ccPlLk8i.s:99     .text.init_ADC_B0:00000000000000c6 .LVL12
/var/folders/v8/5w7qrjpd37x60gtz_mwnrxpr0000gn/T//ccPlLk8i.s:103    .text.init_ADC_B0:00000000000000d0 .LVL13
/var/folders/v8/5w7qrjpd37x60gtz_mwnrxpr0000gn/T//ccPlLk8i.s:107    .text.init_ADC_B0:00000000000000dc .LVL14
/var/folders/v8/5w7qrjpd37x60gtz_mwnrxpr0000gn/T//ccPlLk8i.s:123    .text.init_ADC_B0:00000000000000f0 .LVL15
/var/folders/v8/5w7qrjpd37x60gtz_mwnrxpr0000gn/T//ccPlLk8i.s:4046   .debug_str:0000000000000900 .LASF209
/var/folders/v8/5w7qrjpd37x60gtz_mwnrxpr0000gn/T//ccPlLk8i.s:198    .text.startup.main:0000000000000000 .LFB5
/var/folders/v8/5w7qrjpd37x60gtz_mwnrxpr0000gn/T//ccPlLk8i.s:398    .text.startup.main:000000000000013c .LFE5
/var/folders/v8/5w7qrjpd37x60gtz_mwnrxpr0000gn/T//ccPlLk8i.s:3457   .debug_loc:0000000000000058 .LLST2
/var/folders/v8/5w7qrjpd37x60gtz_mwnrxpr0000gn/T//ccPlLk8i.s:3742   .debug_str:000000000000020f .LASF168
/var/folders/v8/5w7qrjpd37x60gtz_mwnrxpr0000gn/T//ccPlLk8i.s:3470   .debug_loc:0000000000000079 .LLST3
/var/folders/v8/5w7qrjpd37x60gtz_mwnrxpr0000gn/T//ccPlLk8i.s:3768   .debug_str:000000000000028a .LASF169
/var/folders/v8/5w7qrjpd37x60gtz_mwnrxpr0000gn/T//ccPlLk8i.s:3482   .debug_loc:0000000000000098 .LLST4
/var/folders/v8/5w7qrjpd37x60gtz_mwnrxpr0000gn/T//ccPlLk8i.s:3840   .debug_str:000000000000043a .LASF170
/var/folders/v8/5w7qrjpd37x60gtz_mwnrxpr0000gn/T//ccPlLk8i.s:3506   .debug_loc:00000000000000d8 .LLST5
/var/folders/v8/5w7qrjpd37x60gtz_mwnrxpr0000gn/T//ccPlLk8i.s:4042   .debug_str:00000000000008f1 .LASF173
/var/folders/v8/5w7qrjpd37x60gtz_mwnrxpr0000gn/T//ccPlLk8i.s:3648   .debug_str:0000000000000040 .LASF171
/var/folders/v8/5w7qrjpd37x60gtz_mwnrxpr0000gn/T//ccPlLk8i.s:3518   .debug_loc:00000000000000f7 .LLST6
/var/folders/v8/5w7qrjpd37x60gtz_mwnrxpr0000gn/T//ccPlLk8i.s:3650   .debug_str:0000000000000046 .LASF172
/var/folders/v8/5w7qrjpd37x60gtz_mwnrxpr0000gn/T//ccPlLk8i.s:3542   .debug_loc:000000000000011f .LLST7
/var/folders/v8/5w7qrjpd37x60gtz_mwnrxpr0000gn/T//ccPlLk8i.s:3678   .debug_str:00000000000000ed .LASF174
/var/folders/v8/5w7qrjpd37x60gtz_mwnrxpr0000gn/T//ccPlLk8i.s:3680   .debug_str:00000000000000f2 .LASF175
/var/folders/v8/5w7qrjpd37x60gtz_mwnrxpr0000gn/T//ccPlLk8i.s:3566   .debug_loc:0000000000000147 .LLST8
/var/folders/v8/5w7qrjpd37x60gtz_mwnrxpr0000gn/T//ccPlLk8i.s:3866   .debug_str:0000000000000537 .LASF176
/var/folders/v8/5w7qrjpd37x60gtz_mwnrxpr0000gn/T//ccPlLk8i.s:3577   .debug_loc:0000000000000165 .LLST9
/var/folders/v8/5w7qrjpd37x60gtz_mwnrxpr0000gn/T//ccPlLk8i.s:3848   .debug_str:000000000000046d .LASF177
/var/folders/v8/5w7qrjpd37x60gtz_mwnrxpr0000gn/T//ccPlLk8i.s:3585   .debug_loc:0000000000000179 .LLST10
/var/folders/v8/5w7qrjpd37x60gtz_mwnrxpr0000gn/T//ccPlLk8i.s:3910   .debug_str:000000000000062c .LASF178
/var/folders/v8/5w7qrjpd37x60gtz_mwnrxpr0000gn/T//ccPlLk8i.s:3916   .debug_str:0000000000000642 .LASF179
/var/folders/v8/5w7qrjpd37x60gtz_mwnrxpr0000gn/T//ccPlLk8i.s:234    .text.startup.main:0000000000000024 .LVL24
/var/folders/v8/5w7qrjpd37x60gtz_mwnrxpr0000gn/T//ccPlLk8i.s:280    .text.startup.main:000000000000006a .LVL27
/var/folders/v8/5w7qrjpd37x60gtz_mwnrxpr0000gn/T//ccPlLk8i.s:289    .text.startup.main:0000000000000078 .LVL30
/var/folders/v8/5w7qrjpd37x60gtz_mwnrxpr0000gn/T//ccPlLk8i.s:310    .text.startup.main:000000000000009e .LVL36
/var/folders/v8/5w7qrjpd37x60gtz_mwnrxpr0000gn/T//ccPlLk8i.s:325    .text.startup.main:00000000000000c2 .LVL39
/var/folders/v8/5w7qrjpd37x60gtz_mwnrxpr0000gn/T//ccPlLk8i.s:394    .text.startup.main:000000000000013a .LVL53
/var/folders/v8/5w7qrjpd37x60gtz_mwnrxpr0000gn/T//ccPlLk8i.s:4034   .debug_str:00000000000008d1 .LASF180
/var/folders/v8/5w7qrjpd37x60gtz_mwnrxpr0000gn/T//ccPlLk8i.s:4012   .debug_str:0000000000000853 .LASF181
/var/folders/v8/5w7qrjpd37x60gtz_mwnrxpr0000gn/T//ccPlLk8i.s:3844   .debug_str:000000000000044e .LASF182
/var/folders/v8/5w7qrjpd37x60gtz_mwnrxpr0000gn/T//ccPlLk8i.s:4052   .debug_str:0000000000000918 .LASF183
/var/folders/v8/5w7qrjpd37x60gtz_mwnrxpr0000gn/T//ccPlLk8i.s:3788   .debug_str:00000000000002ed .LASF184
/var/folders/v8/5w7qrjpd37x60gtz_mwnrxpr0000gn/T//ccPlLk8i.s:3666   .debug_str:0000000000000092 .LASF185
/var/folders/v8/5w7qrjpd37x60gtz_mwnrxpr0000gn/T//ccPlLk8i.s:3934   .debug_str:00000000000006a4 .LASF186
/var/folders/v8/5w7qrjpd37x60gtz_mwnrxpr0000gn/T//ccPlLk8i.s:3814   .debug_str:000000000000039f .LASF187
/var/folders/v8/5w7qrjpd37x60gtz_mwnrxpr0000gn/T//ccPlLk8i.s:3900   .debug_str:00000000000005f1 .LASF188
/var/folders/v8/5w7qrjpd37x60gtz_mwnrxpr0000gn/T//ccPlLk8i.s:3942   .debug_str:00000000000006ce .LASF189
/var/folders/v8/5w7qrjpd37x60gtz_mwnrxpr0000gn/T//ccPlLk8i.s:3988   .debug_str:00000000000007be .LASF190
/var/folders/v8/5w7qrjpd37x60gtz_mwnrxpr0000gn/T//ccPlLk8i.s:3888   .debug_str:00000000000005a9 .LASF191
/var/folders/v8/5w7qrjpd37x60gtz_mwnrxpr0000gn/T//ccPlLk8i.s:3998   .debug_str:00000000000007fa .LASF192
/var/folders/v8/5w7qrjpd37x60gtz_mwnrxpr0000gn/T//ccPlLk8i.s:3976   .debug_str:000000000000076d .LASF193
GAS LISTING /var/folders/v8/5w7qrjpd37x60gtz_mwnrxpr0000gn/T//ccPlLk8i.s 			page 20


/var/folders/v8/5w7qrjpd37x60gtz_mwnrxpr0000gn/T//ccPlLk8i.s:4020   .debug_str:000000000000087b .LASF194
/var/folders/v8/5w7qrjpd37x60gtz_mwnrxpr0000gn/T//ccPlLk8i.s:3868   .debug_str:000000000000053c .LASF195
/var/folders/v8/5w7qrjpd37x60gtz_mwnrxpr0000gn/T//ccPlLk8i.s:4006   .debug_str:000000000000083e .LASF196
/var/folders/v8/5w7qrjpd37x60gtz_mwnrxpr0000gn/T//ccPlLk8i.s:3822   .debug_str:00000000000003d3 .LASF197
/var/folders/v8/5w7qrjpd37x60gtz_mwnrxpr0000gn/T//ccPlLk8i.s:3818   .debug_str:00000000000003b1 .LASF198
/var/folders/v8/5w7qrjpd37x60gtz_mwnrxpr0000gn/T//ccPlLk8i.s:3758   .debug_str:0000000000000261 .LASF199
/var/folders/v8/5w7qrjpd37x60gtz_mwnrxpr0000gn/T//ccPlLk8i.s:3902   .debug_str:0000000000000601 .LASF200
/var/folders/v8/5w7qrjpd37x60gtz_mwnrxpr0000gn/T//ccPlLk8i.s:3660   .debug_str:0000000000000070 .LASF201
/var/folders/v8/5w7qrjpd37x60gtz_mwnrxpr0000gn/T//ccPlLk8i.s:3718   .debug_str:00000000000001a7 .LASF202
/var/folders/v8/5w7qrjpd37x60gtz_mwnrxpr0000gn/T//ccPlLk8i.s:138    .text.initCMG:0000000000000002 .LCFI2
/var/folders/v8/5w7qrjpd37x60gtz_mwnrxpr0000gn/T//ccPlLk8i.s:180    .text.initCMG:0000000000000064 .LCFI3
/var/folders/v8/5w7qrjpd37x60gtz_mwnrxpr0000gn/T//ccPlLk8i.s:21     .text.init_ADC_B0:0000000000000002 .LCFI0
/var/folders/v8/5w7qrjpd37x60gtz_mwnrxpr0000gn/T//ccPlLk8i.s:119    .text.init_ADC_B0:00000000000000e8 .LCFI1
/var/folders/v8/5w7qrjpd37x60gtz_mwnrxpr0000gn/T//ccPlLk8i.s:204    .text.startup.main:0000000000000002 .LCFI4
/var/folders/v8/5w7qrjpd37x60gtz_mwnrxpr0000gn/T//ccPlLk8i.s:267    .text.startup.main:000000000000005e .LVL25
/var/folders/v8/5w7qrjpd37x60gtz_mwnrxpr0000gn/T//ccPlLk8i.s:274    .text.startup.main:0000000000000062 .LVL26
/var/folders/v8/5w7qrjpd37x60gtz_mwnrxpr0000gn/T//ccPlLk8i.s:299    .text.startup.main:0000000000000080 .LVL32
/var/folders/v8/5w7qrjpd37x60gtz_mwnrxpr0000gn/T//ccPlLk8i.s:282    .text.startup.main:000000000000006c .LVL28
/var/folders/v8/5w7qrjpd37x60gtz_mwnrxpr0000gn/T//ccPlLk8i.s:287    .text.startup.main:0000000000000070 .LVL29
/var/folders/v8/5w7qrjpd37x60gtz_mwnrxpr0000gn/T//ccPlLk8i.s:304    .text.startup.main:000000000000008a .LVL34
/var/folders/v8/5w7qrjpd37x60gtz_mwnrxpr0000gn/T//ccPlLk8i.s:294    .text.startup.main:000000000000007e .LVL31
/var/folders/v8/5w7qrjpd37x60gtz_mwnrxpr0000gn/T//ccPlLk8i.s:362    .text.startup.main:00000000000000fa .LVL45
/var/folders/v8/5w7qrjpd37x60gtz_mwnrxpr0000gn/T//ccPlLk8i.s:337    .text.startup.main:00000000000000ce .LVL41
/var/folders/v8/5w7qrjpd37x60gtz_mwnrxpr0000gn/T//ccPlLk8i.s:346    .text.startup.main:00000000000000d8 .LVL42
/var/folders/v8/5w7qrjpd37x60gtz_mwnrxpr0000gn/T//ccPlLk8i.s:329    .text.startup.main:00000000000000c4 .LVL40
/var/folders/v8/5w7qrjpd37x60gtz_mwnrxpr0000gn/T//ccPlLk8i.s:367    .text.startup.main:00000000000000fe .LVL46
/var/folders/v8/5w7qrjpd37x60gtz_mwnrxpr0000gn/T//ccPlLk8i.s:386    .text.startup.main:000000000000012c .LVL51
/var/folders/v8/5w7qrjpd37x60gtz_mwnrxpr0000gn/T//ccPlLk8i.s:390    .text.startup.main:0000000000000130 .LVL52
/var/folders/v8/5w7qrjpd37x60gtz_mwnrxpr0000gn/T//ccPlLk8i.s:427    .debug_info:0000000000000000 .Ldebug_info0

UNDEFINED SYMBOLS
rcu_periph_clock_enable
gpio_init
rcu_adc_clock_config
adc_deinit
adc_mode_config
adc_special_function_config
adc_data_alignment_config
adc_channel_length_config
adc_regular_channel_config
adc_external_trigger_source_config
adc_external_trigger_config
adc_enable
delay_1ms
adc_calibration_enable
adc_software_trigger_enable
InitPWM
initServoA
mpu6500_install
motorStartupSeq
__fixsfsi
__floatsidf
__muldf3
__adddf3
__fixdfsi
millis
mpu6500_getGyroAccel
GAS LISTING /var/folders/v8/5w7qrjpd37x60gtz_mwnrxpr0000gn/T//ccPlLk8i.s 			page 21


cordic_atan
MoveServoA
