GAS LISTING /var/folders/v8/5w7qrjpd37x60gtz_mwnrxpr0000gn/T//cc3AmiH8.s 			page 1


   1              		.file	"mpu6500_driver.c"
   2              		.option nopic
   3              		.attribute arch, "rv32i2p0_m2p0_a2p0_c2p0"
   4              		.attribute unaligned_access, 0
   5              		.attribute stack_align, 16
   6              		.text
   7              	.Ltext0:
   8              		.cfi_sections	.debug_frame
   9              		.section	.text.read_mpu,"ax",@progbits
  10              		.align	1
  11              		.globl	read_mpu
  13              	read_mpu:
  14              	.LFB3:
  15              		.file 1 "lib/mpu/src/mpu6500_driver.c"
   1:lib/mpu/src/mpu6500_driver.c **** #include "mpu6500_driver.h"
   2:lib/mpu/src/mpu6500_driver.c **** #include "stdint.h"
   3:lib/mpu/src/mpu6500_driver.c **** 
   4:lib/mpu/src/mpu6500_driver.c **** typedef struct{
   5:lib/mpu/src/mpu6500_driver.c **** 	void (*read)(void* pHandle, uint8_t addr, uint8_t reg, uint8_t size, uint8_t* pData);
   6:lib/mpu/src/mpu6500_driver.c **** 	void (*write)(void* pHandle, uint8_t addr, uint8_t reg, uint8_t size, uint8_t* pData);
   7:lib/mpu/src/mpu6500_driver.c **** 	void (*delay)(int millis);
   8:lib/mpu/src/mpu6500_driver.c **** 	void* pHandle;
   9:lib/mpu/src/mpu6500_driver.c **** }mpu6500_comms_t;
  10:lib/mpu/src/mpu6500_driver.c **** 
  11:lib/mpu/src/mpu6500_driver.c **** mpu6500_comms_t cb;
  12:lib/mpu/src/mpu6500_driver.c **** 
  13:lib/mpu/src/mpu6500_driver.c **** void read_mpu(uint8_t reg, uint8_t size, uint8_t* data){
  16              		.loc 1 13 56
  17              		.cfi_startproc
  18              	.LVL0:
  14:lib/mpu/src/mpu6500_driver.c **** 	cb.read(cb.pHandle, MPU6500_ADDR, reg, size, data);
  19              		.loc 1 14 2
  20 0000 B7070000 		lui	a5,%hi(cb)
  21 0004 93870700 		addi	a5,a5,%lo(cb)
  22 0008 3287     		mv	a4,a2
  23 000a 03A30700 		lw	t1,0(a5)
  24 000e 2A86     		mv	a2,a0
  25              	.LVL1:
  26 0010 C847     		lw	a0,12(a5)
  27              	.LVL2:
  28 0012 AE86     		mv	a3,a1
  29 0014 93058006 		li	a1,104
  30              	.LVL3:
  31 0018 0283     		jr	t1
  32              	.LVL4:
  33              		.cfi_endproc
  34              	.LFE3:
  36              		.section	.text.write_mpu,"ax",@progbits
  37              		.align	1
  38              		.globl	write_mpu
  40              	write_mpu:
  41              	.LFB4:
  15:lib/mpu/src/mpu6500_driver.c **** }
  16:lib/mpu/src/mpu6500_driver.c **** 
  17:lib/mpu/src/mpu6500_driver.c **** void write_mpu(uint8_t reg, uint8_t size, uint8_t* data){
  42              		.loc 1 17 57
  43              		.cfi_startproc
GAS LISTING /var/folders/v8/5w7qrjpd37x60gtz_mwnrxpr0000gn/T//cc3AmiH8.s 			page 2


  44              	.LVL5:
  18:lib/mpu/src/mpu6500_driver.c **** 	cb.write(cb.pHandle, MPU6500_ADDR, reg, size, data);
  45              		.loc 1 18 2
  46 0000 B7070000 		lui	a5,%hi(cb)
  47 0004 93870700 		addi	a5,a5,%lo(cb)
  48 0008 3287     		mv	a4,a2
  49 000a 03A34700 		lw	t1,4(a5)
  50 000e 2A86     		mv	a2,a0
  51              	.LVL6:
  52 0010 C847     		lw	a0,12(a5)
  53              	.LVL7:
  54 0012 AE86     		mv	a3,a1
  55 0014 93058006 		li	a1,104
  56              	.LVL8:
  57 0018 0283     		jr	t1
  58              	.LVL9:
  59              		.cfi_endproc
  60              	.LFE4:
  62              		.section	.text.flip_bytes,"ax",@progbits
  63              		.align	1
  64              		.globl	flip_bytes
  66              	flip_bytes:
  67              	.LFB5:
  19:lib/mpu/src/mpu6500_driver.c **** }
  20:lib/mpu/src/mpu6500_driver.c **** 
  21:lib/mpu/src/mpu6500_driver.c **** int16_t flip_bytes(int16_t bt){
  68              		.loc 1 21 31
  69              		.cfi_startproc
  70              	.LVL10:
  22:lib/mpu/src/mpu6500_driver.c **** 	uint8_t* pByte = (uint8_t*)&bt;
  71              		.loc 1 22 2
  23:lib/mpu/src/mpu6500_driver.c **** 	uint8_t temp = pByte[1];
  24:lib/mpu/src/mpu6500_driver.c **** 	pByte[1] = pByte[0];
  25:lib/mpu/src/mpu6500_driver.c **** 	pByte[0] = temp;
  72              		.loc 1 25 11 is_stmt 0
  73 0000 93170501 		slli	a5,a0,16
  74 0004 C183     		srli	a5,a5,16
  75 0006 2205     		slli	a0,a0,8
  76              	.LVL11:
  77 0008 A183     		srli	a5,a5,8
  78 000a 5D8D     		or	a0,a0,a5
  21:lib/mpu/src/mpu6500_driver.c **** 	uint8_t* pByte = (uint8_t*)&bt;
  79              		.loc 1 21 31
  80 000c 4111     		addi	sp,sp,-16
  81              	.LCFI0:
  82              		.cfi_def_cfa_offset 16
  83              	.LVL12:
  23:lib/mpu/src/mpu6500_driver.c **** 	uint8_t temp = pByte[1];
  84              		.loc 1 23 2 is_stmt 1
  24:lib/mpu/src/mpu6500_driver.c **** 	pByte[0] = temp;
  85              		.loc 1 24 2
  86              		.loc 1 25 2
  26:lib/mpu/src/mpu6500_driver.c **** 	return bt; 
  87              		.loc 1 26 2
  27:lib/mpu/src/mpu6500_driver.c **** }
  88              		.loc 1 27 1 is_stmt 0
  89 000e 4205     		slli	a0,a0,16
GAS LISTING /var/folders/v8/5w7qrjpd37x60gtz_mwnrxpr0000gn/T//cc3AmiH8.s 			page 3


  90 0010 4185     		srai	a0,a0,16
  91 0012 4101     		addi	sp,sp,16
  92              	.LCFI1:
  93              		.cfi_def_cfa_offset 0
  94              	.LVL13:
  95 0014 8280     		jr	ra
  96              		.cfi_endproc
  97              	.LFE5:
  99              		.section	.text.mpu6500_init,"ax",@progbits
 100              		.align	1
 101              		.globl	mpu6500_init
 103              	mpu6500_init:
 104              	.LFB6:
  28:lib/mpu/src/mpu6500_driver.c **** 
  29:lib/mpu/src/mpu6500_driver.c **** int mpu6500_init(void (*read_cb)(void* pHandle, uint8_t addr, uint8_t reg, uint8_t size, uint8_t* p
  30:lib/mpu/src/mpu6500_driver.c **** 				 void (*write_cb)(void* pHandle, uint8_t addr, uint8_t reg, uint8_t size, uint8_t* pData),
  31:lib/mpu/src/mpu6500_driver.c **** 				 void (*delay_cb)(int millis),
  32:lib/mpu/src/mpu6500_driver.c **** 				 void* pHandle){
 105              		.loc 1 32 20 is_stmt 1
 106              		.cfi_startproc
 107              	.LVL14:
  33:lib/mpu/src/mpu6500_driver.c **** 	uint8_t read_buffer[4];
 108              		.loc 1 33 2
  34:lib/mpu/src/mpu6500_driver.c **** 	uint8_t write_buffer[4];
 109              		.loc 1 34 2
  35:lib/mpu/src/mpu6500_driver.c **** 	cb.read = read_cb;
 110              		.loc 1 35 2
  32:lib/mpu/src/mpu6500_driver.c **** 	uint8_t read_buffer[4];
 111              		.loc 1 32 20 is_stmt 0
 112 0000 0111     		addi	sp,sp,-32
 113              	.LCFI2:
 114              		.cfi_def_cfa_offset 32
 115 0002 22CC     		sw	s0,24(sp)
 116              		.cfi_offset 8, -8
 117              		.loc 1 35 10
 118 0004 37040000 		lui	s0,%hi(cb)
 119 0008 13040400 		addi	s0,s0,%lo(cb)
  32:lib/mpu/src/mpu6500_driver.c **** 	uint8_t read_buffer[4];
 120              		.loc 1 32 20
 121 000c AA87     		mv	a5,a0
  36:lib/mpu/src/mpu6500_driver.c **** 	cb.write = write_cb;
 122              		.loc 1 36 11
 123 000e 4CC0     		sw	a1,4(s0)
  32:lib/mpu/src/mpu6500_driver.c **** 	uint8_t read_buffer[4];
 124              		.loc 1 32 20
 125 0010 3685     		mv	a0,a3
 126              	.LVL15:
  37:lib/mpu/src/mpu6500_driver.c **** 	cb.delay = delay_cb;
 127              		.loc 1 37 11
 128 0012 10C4     		sw	a2,8(s0)
  35:lib/mpu/src/mpu6500_driver.c **** 	cb.write = write_cb;
 129              		.loc 1 35 10
 130 0014 1CC0     		sw	a5,0(s0)
  36:lib/mpu/src/mpu6500_driver.c **** 	cb.write = write_cb;
 131              		.loc 1 36 2 is_stmt 1
 132              		.loc 1 37 2
  38:lib/mpu/src/mpu6500_driver.c **** 	cb.pHandle = pHandle;
GAS LISTING /var/folders/v8/5w7qrjpd37x60gtz_mwnrxpr0000gn/T//cc3AmiH8.s 			page 4


 133              		.loc 1 38 2
 134              		.loc 1 38 13 is_stmt 0
 135 0016 54C4     		sw	a3,12(s0)
  39:lib/mpu/src/mpu6500_driver.c **** 
  40:lib/mpu/src/mpu6500_driver.c **** 
  41:lib/mpu/src/mpu6500_driver.c **** 
  42:lib/mpu/src/mpu6500_driver.c **** 	read_mpu(MPU6500_WHO_AM_I, 1, read_buffer);
 136              		.loc 1 42 2 is_stmt 1
 137              	.LVL16:
 138              	.LBB40:
 139              	.LBB41:
  14:lib/mpu/src/mpu6500_driver.c **** }
 140              		.loc 1 14 2
 141 0018 3800     		addi	a4,sp,8
 142              	.LVL17:
 143              	.LBE41:
 144              	.LBE40:
  32:lib/mpu/src/mpu6500_driver.c **** 	uint8_t read_buffer[4];
 145              		.loc 1 32 20 is_stmt 0
 146 001a 06CE     		sw	ra,28(sp)
 147 001c 26CA     		sw	s1,20(sp)
 148              		.cfi_offset 1, -4
 149              		.cfi_offset 9, -12
 150              	.LBB43:
 151              	.LBB42:
  14:lib/mpu/src/mpu6500_driver.c **** }
 152              		.loc 1 14 2
 153 001e 8546     		li	a3,1
 154              	.LVL18:
 155 0020 13065007 		li	a2,117
 156              	.LVL19:
 157 0024 93058006 		li	a1,104
 158              	.LVL20:
 159 0028 8297     		jalr	a5
 160              	.LVL21:
 161              	.LBE42:
 162              	.LBE43:
  43:lib/mpu/src/mpu6500_driver.c **** 	if(read_buffer[0] != MPU6500_WHO_AM_I_ID) return -1;
 163              		.loc 1 43 2 is_stmt 1
 164              		.loc 1 43 4 is_stmt 0
 165 002a 03478100 		lbu	a4,8(sp)
 166 002e 93070007 		li	a5,112
 167              		.loc 1 43 51
 168 0032 7D55     		li	a0,-1
 169              		.loc 1 43 4
 170 0034 6313F710 		bne	a4,a5,.L6
  44:lib/mpu/src/mpu6500_driver.c **** 
  45:lib/mpu/src/mpu6500_driver.c **** 	write_buffer[0] = MPU6500_DEVICE_RESET;
 171              		.loc 1 45 2 is_stmt 1
 172              	.LBB44:
 173              	.LBB45:
  18:lib/mpu/src/mpu6500_driver.c **** }
 174              		.loc 1 18 2 is_stmt 0
 175 0038 4844     		lw	a0,12(s0)
 176 003a 5C40     		lw	a5,4(s0)
 177              	.LBE45:
 178              	.LBE44:
GAS LISTING /var/folders/v8/5w7qrjpd37x60gtz_mwnrxpr0000gn/T//cc3AmiH8.s 			page 5


 179              		.loc 1 45 18
 180 003c 130800F8 		li	a6,-128
 181              	.LBB48:
 182              	.LBB46:
  18:lib/mpu/src/mpu6500_driver.c **** }
 183              		.loc 1 18 2
 184 0040 7800     		addi	a4,sp,12
 185 0042 8546     		li	a3,1
 186 0044 1306B006 		li	a2,107
 187 0048 93058006 		li	a1,104
 188              	.LBE46:
 189              	.LBE48:
 190              		.loc 1 45 18
 191 004c 23060101 		sb	a6,12(sp)
  46:lib/mpu/src/mpu6500_driver.c **** 	write_mpu(MPU6500_PWR_MGMT_1, 1, write_buffer);
 192              		.loc 1 46 2 is_stmt 1
 193              	.LVL22:
 194              	.LBB49:
 195              	.LBB47:
  18:lib/mpu/src/mpu6500_driver.c **** }
 196              		.loc 1 18 2
 197 0050 8297     		jalr	a5
 198              	.LVL23:
 199              	.LBE47:
 200              	.LBE49:
  47:lib/mpu/src/mpu6500_driver.c **** 
  48:lib/mpu/src/mpu6500_driver.c **** 	cb.delay(100);
 201              		.loc 1 48 2
 202 0052 1C44     		lw	a5,8(s0)
 203 0054 13054006 		li	a0,100
 204 0058 8297     		jalr	a5
 205              	.LVL24:
  49:lib/mpu/src/mpu6500_driver.c **** 
  50:lib/mpu/src/mpu6500_driver.c **** 	while(read_buffer[0] & MPU6500_DEVICE_RESET) read_mpu(MPU6500_PWR_MGMT_1, 1, read_buffer);
 206              		.loc 1 50 2
 207              		.loc 1 50 7 is_stmt 0
 208 005a 83078100 		lb	a5,8(sp)
 209 005e 63DF0700 		bge	a5,zero,.L8
 210              	.L9:
 211              		.loc 1 50 47 is_stmt 1
 212              	.LVL25:
 213              	.LBB50:
 214              	.LBB51:
  14:lib/mpu/src/mpu6500_driver.c **** }
 215              		.loc 1 14 2
 216 0062 1C40     		lw	a5,0(s0)
 217 0064 4844     		lw	a0,12(s0)
 218 0066 3800     		addi	a4,sp,8
 219              	.LVL26:
 220 0068 8546     		li	a3,1
 221 006a 1306B006 		li	a2,107
 222 006e 93058006 		li	a1,104
 223 0072 8297     		jalr	a5
 224              	.LVL27:
 225              	.LBE51:
 226              	.LBE50:
 227              		.loc 1 50 7 is_stmt 0
GAS LISTING /var/folders/v8/5w7qrjpd37x60gtz_mwnrxpr0000gn/T//cc3AmiH8.s 			page 6


 228 0074 83078100 		lb	a5,8(sp)
 229 0078 E3C507FE 		blt	a5,zero,.L9
 230              	.LVL28:
 231              	.L8:
  51:lib/mpu/src/mpu6500_driver.c **** 
  52:lib/mpu/src/mpu6500_driver.c **** 	cb.delay(100);
 232              		.loc 1 52 2 is_stmt 1
 233 007c 1C44     		lw	a5,8(s0)
 234 007e 13054006 		li	a0,100
  53:lib/mpu/src/mpu6500_driver.c **** 
  54:lib/mpu/src/mpu6500_driver.c **** 	write_buffer[0] = MPU6500_TEMP_DIS | 0x01; //select PLL
  55:lib/mpu/src/mpu6500_driver.c **** 	write_mpu(MPU6500_PWR_MGMT_1, 1, write_buffer);
  56:lib/mpu/src/mpu6500_driver.c **** 
  57:lib/mpu/src/mpu6500_driver.c **** 	write_buffer[0] = 0x00;
  58:lib/mpu/src/mpu6500_driver.c **** 	write_mpu(MPU6500_SMPLRT_DIV, 1, write_buffer);
  59:lib/mpu/src/mpu6500_driver.c **** 
  60:lib/mpu/src/mpu6500_driver.c **** 	write_buffer[0] = MPU6500_G_DLPF_92HZ;
 235              		.loc 1 60 18 is_stmt 0
 236 0082 8944     		li	s1,2
  52:lib/mpu/src/mpu6500_driver.c **** 
 237              		.loc 1 52 2
 238 0084 8297     		jalr	a5
 239              	.LVL29:
  54:lib/mpu/src/mpu6500_driver.c **** 	write_mpu(MPU6500_PWR_MGMT_1, 1, write_buffer);
 240              		.loc 1 54 2 is_stmt 1
 241              	.LBB52:
 242              	.LBB53:
  18:lib/mpu/src/mpu6500_driver.c **** }
 243              		.loc 1 18 2 is_stmt 0
 244 0086 4844     		lw	a0,12(s0)
 245 0088 5C40     		lw	a5,4(s0)
 246              	.LBE53:
 247              	.LBE52:
  54:lib/mpu/src/mpu6500_driver.c **** 	write_mpu(MPU6500_PWR_MGMT_1, 1, write_buffer);
 248              		.loc 1 54 18
 249 008a 2548     		li	a6,9
 250 008c 23060101 		sb	a6,12(sp)
  55:lib/mpu/src/mpu6500_driver.c **** 
 251              		.loc 1 55 2 is_stmt 1
 252              	.LVL30:
 253              	.LBB55:
 254              	.LBB54:
  18:lib/mpu/src/mpu6500_driver.c **** }
 255              		.loc 1 18 2
 256 0090 7800     		addi	a4,sp,12
 257              	.LVL31:
 258 0092 8546     		li	a3,1
 259 0094 1306B006 		li	a2,107
 260 0098 93058006 		li	a1,104
 261 009c 8297     		jalr	a5
 262              	.LVL32:
 263              	.LBE54:
 264              	.LBE55:
  57:lib/mpu/src/mpu6500_driver.c **** 	write_mpu(MPU6500_SMPLRT_DIV, 1, write_buffer);
 265              		.loc 1 57 2
 266              	.LBB56:
 267              	.LBB57:
GAS LISTING /var/folders/v8/5w7qrjpd37x60gtz_mwnrxpr0000gn/T//cc3AmiH8.s 			page 7


  18:lib/mpu/src/mpu6500_driver.c **** }
 268              		.loc 1 18 2 is_stmt 0
 269 009e 4844     		lw	a0,12(s0)
 270 00a0 5C40     		lw	a5,4(s0)
 271 00a2 7800     		addi	a4,sp,12
 272 00a4 8546     		li	a3,1
 273 00a6 6546     		li	a2,25
 274 00a8 93058006 		li	a1,104
 275              	.LBE57:
 276              	.LBE56:
  57:lib/mpu/src/mpu6500_driver.c **** 	write_mpu(MPU6500_SMPLRT_DIV, 1, write_buffer);
 277              		.loc 1 57 18
 278 00ac 23060100 		sb	zero,12(sp)
  58:lib/mpu/src/mpu6500_driver.c **** 
 279              		.loc 1 58 2 is_stmt 1
 280              	.LVL33:
 281              	.LBB59:
 282              	.LBB58:
  18:lib/mpu/src/mpu6500_driver.c **** }
 283              		.loc 1 18 2
 284 00b0 8297     		jalr	a5
 285              	.LVL34:
 286              	.LBE58:
 287              	.LBE59:
 288              		.loc 1 60 2
 289              	.LBB60:
 290              	.LBB61:
  18:lib/mpu/src/mpu6500_driver.c **** }
 291              		.loc 1 18 2 is_stmt 0
 292 00b2 4844     		lw	a0,12(s0)
 293 00b4 5C40     		lw	a5,4(s0)
 294 00b6 7800     		addi	a4,sp,12
 295 00b8 8546     		li	a3,1
 296 00ba 6946     		li	a2,26
 297 00bc 93058006 		li	a1,104
 298              	.LBE61:
 299              	.LBE60:
 300              		.loc 1 60 18
 301 00c0 23069100 		sb	s1,12(sp)
  61:lib/mpu/src/mpu6500_driver.c **** 	write_mpu(MPU6500_CONFIG, 1, write_buffer);
 302              		.loc 1 61 2 is_stmt 1
 303              	.LVL35:
 304              	.LBB63:
 305              	.LBB62:
  18:lib/mpu/src/mpu6500_driver.c **** }
 306              		.loc 1 18 2
 307 00c4 8297     		jalr	a5
 308              	.LVL36:
 309              	.LBE62:
 310              	.LBE63:
  62:lib/mpu/src/mpu6500_driver.c **** 
  63:lib/mpu/src/mpu6500_driver.c **** 	write_buffer[0] = MPU6500_GYRO_FS_2000DPS;
 311              		.loc 1 63 2
 312              	.LBB64:
 313              	.LBB65:
  18:lib/mpu/src/mpu6500_driver.c **** }
 314              		.loc 1 18 2 is_stmt 0
GAS LISTING /var/folders/v8/5w7qrjpd37x60gtz_mwnrxpr0000gn/T//cc3AmiH8.s 			page 8


 315 00c6 4844     		lw	a0,12(s0)
 316 00c8 5C40     		lw	a5,4(s0)
 317              	.LBE65:
 318              	.LBE64:
 319              		.loc 1 63 18
 320 00ca 6148     		li	a6,24
 321              	.LBB68:
 322              	.LBB66:
  18:lib/mpu/src/mpu6500_driver.c **** }
 323              		.loc 1 18 2
 324 00cc 7800     		addi	a4,sp,12
 325 00ce 8546     		li	a3,1
 326 00d0 6D46     		li	a2,27
 327 00d2 93058006 		li	a1,104
 328              	.LBE66:
 329              	.LBE68:
 330              		.loc 1 63 18
 331 00d6 23060101 		sb	a6,12(sp)
  64:lib/mpu/src/mpu6500_driver.c **** 	write_mpu(MPU6500_GYRO_CONFIG, 1, write_buffer);
 332              		.loc 1 64 2 is_stmt 1
 333              	.LVL37:
 334              	.LBB69:
 335              	.LBB67:
  18:lib/mpu/src/mpu6500_driver.c **** }
 336              		.loc 1 18 2
 337 00da 8297     		jalr	a5
 338              	.LVL38:
 339              	.LBE67:
 340              	.LBE69:
  65:lib/mpu/src/mpu6500_driver.c **** 
  66:lib/mpu/src/mpu6500_driver.c **** 	write_buffer[0] = MPU6500_ACCEL_FS_8G;
 341              		.loc 1 66 2
 342              	.LBB70:
 343              	.LBB71:
  18:lib/mpu/src/mpu6500_driver.c **** }
 344              		.loc 1 18 2 is_stmt 0
 345 00dc 4844     		lw	a0,12(s0)
 346 00de 5C40     		lw	a5,4(s0)
 347              	.LBE71:
 348              	.LBE70:
 349              		.loc 1 66 18
 350 00e0 4148     		li	a6,16
 351 00e2 23060101 		sb	a6,12(sp)
  67:lib/mpu/src/mpu6500_driver.c **** 	write_mpu(MPU6500_ACCEL_CONFIG, 1, write_buffer);
 352              		.loc 1 67 2 is_stmt 1
 353              	.LVL39:
 354              	.LBB73:
 355              	.LBB72:
  18:lib/mpu/src/mpu6500_driver.c **** }
 356              		.loc 1 18 2
 357 00e6 7800     		addi	a4,sp,12
 358              	.LVL40:
 359 00e8 8546     		li	a3,1
 360 00ea 7146     		li	a2,28
 361 00ec 93058006 		li	a1,104
 362 00f0 8297     		jalr	a5
 363              	.LVL41:
GAS LISTING /var/folders/v8/5w7qrjpd37x60gtz_mwnrxpr0000gn/T//cc3AmiH8.s 			page 9


 364              	.LBE72:
 365              	.LBE73:
  68:lib/mpu/src/mpu6500_driver.c **** 	
  69:lib/mpu/src/mpu6500_driver.c **** 	write_buffer[0] = MPU6500_A_DPLF_92HZ;
 366              		.loc 1 69 2
 367              	.LBB74:
 368              	.LBB75:
  18:lib/mpu/src/mpu6500_driver.c **** }
 369              		.loc 1 18 2 is_stmt 0
 370 00f2 4844     		lw	a0,12(s0)
 371 00f4 5C40     		lw	a5,4(s0)
 372 00f6 7800     		addi	a4,sp,12
 373 00f8 8546     		li	a3,1
 374 00fa 7546     		li	a2,29
 375 00fc 93058006 		li	a1,104
 376              	.LBE75:
 377              	.LBE74:
 378              		.loc 1 69 18
 379 0100 23069100 		sb	s1,12(sp)
  70:lib/mpu/src/mpu6500_driver.c **** 	write_mpu(MPU6500_ACCEL_CONFIG2, 1, write_buffer);
 380              		.loc 1 70 2 is_stmt 1
 381              	.LVL42:
 382              	.LBB77:
 383              	.LBB76:
  18:lib/mpu/src/mpu6500_driver.c **** }
 384              		.loc 1 18 2
 385 0104 8297     		jalr	a5
 386              	.LVL43:
 387              	.LBE76:
 388              	.LBE77:
  71:lib/mpu/src/mpu6500_driver.c **** 
  72:lib/mpu/src/mpu6500_driver.c **** 	write_buffer[0] = MPU6500_LATCH_INT_EN | MPU6500_INT_ANYRD_2CLEAR | MPU6500_INT_BYPASS_EN;
 389              		.loc 1 72 2
 390              	.LBB78:
 391              	.LBB79:
  18:lib/mpu/src/mpu6500_driver.c **** }
 392              		.loc 1 18 2 is_stmt 0
 393 0106 4844     		lw	a0,12(s0)
 394 0108 5C40     		lw	a5,4(s0)
 395              	.LBE79:
 396              	.LBE78:
 397              		.loc 1 72 18
 398 010a 13082003 		li	a6,50
 399              	.LBB82:
 400              	.LBB80:
  18:lib/mpu/src/mpu6500_driver.c **** }
 401              		.loc 1 18 2
 402 010e 7800     		addi	a4,sp,12
 403 0110 8546     		li	a3,1
 404 0112 13067003 		li	a2,55
 405 0116 93058006 		li	a1,104
 406              	.LBE80:
 407              	.LBE82:
 408              		.loc 1 72 18
 409 011a 23060101 		sb	a6,12(sp)
  73:lib/mpu/src/mpu6500_driver.c **** 	write_mpu(MPU6500_INT_PIN_CFG, 1, write_buffer);
 410              		.loc 1 73 2 is_stmt 1
GAS LISTING /var/folders/v8/5w7qrjpd37x60gtz_mwnrxpr0000gn/T//cc3AmiH8.s 			page 10


 411              	.LVL44:
 412              	.LBB83:
 413              	.LBB81:
  18:lib/mpu/src/mpu6500_driver.c **** }
 414              		.loc 1 18 2
 415 011e 8297     		jalr	a5
 416              	.LVL45:
 417              	.LBE81:
 418              	.LBE83:
  74:lib/mpu/src/mpu6500_driver.c **** 
  75:lib/mpu/src/mpu6500_driver.c **** 	write_buffer[0] = MPU6500_INT_RAW_RDY_EN;
 419              		.loc 1 75 2
 420              	.LBB84:
 421              	.LBB85:
  18:lib/mpu/src/mpu6500_driver.c **** }
 422              		.loc 1 18 2 is_stmt 0
 423 0120 4844     		lw	a0,12(s0)
 424 0122 5C40     		lw	a5,4(s0)
 425              	.LBE85:
 426              	.LBE84:
 427              		.loc 1 75 18
 428 0124 0547     		li	a4,1
 429 0126 2306E100 		sb	a4,12(sp)
  76:lib/mpu/src/mpu6500_driver.c **** 	write_mpu(MPU6500_INT_ENABLE, 1, write_buffer);
 430              		.loc 1 76 2 is_stmt 1
 431              	.LVL46:
 432              	.LBB87:
 433              	.LBB86:
  18:lib/mpu/src/mpu6500_driver.c **** }
 434              		.loc 1 18 2
 435 012a 8546     		li	a3,1
 436 012c 7800     		addi	a4,sp,12
 437              	.LVL47:
 438 012e 13068003 		li	a2,56
 439 0132 93058006 		li	a1,104
 440 0136 8297     		jalr	a5
 441              	.LVL48:
 442              	.LBE86:
 443              	.LBE87:
  77:lib/mpu/src/mpu6500_driver.c **** 
  78:lib/mpu/src/mpu6500_driver.c **** 	return 1;
 444              		.loc 1 78 2
 445              		.loc 1 78 9 is_stmt 0
 446 0138 0545     		li	a0,1
 447              	.L6:
  79:lib/mpu/src/mpu6500_driver.c **** 
  80:lib/mpu/src/mpu6500_driver.c **** }
 448              		.loc 1 80 1
 449 013a F240     		lw	ra,28(sp)
 450              		.cfi_restore 1
 451 013c 6244     		lw	s0,24(sp)
 452              		.cfi_restore 8
 453 013e D244     		lw	s1,20(sp)
 454              		.cfi_restore 9
 455 0140 0561     		addi	sp,sp,32
 456              	.LCFI3:
 457              		.cfi_def_cfa_offset 0
GAS LISTING /var/folders/v8/5w7qrjpd37x60gtz_mwnrxpr0000gn/T//cc3AmiH8.s 			page 11


 458 0142 8280     		jr	ra
 459              		.cfi_endproc
 460              	.LFE6:
 462              		.globl	__floatsisf
 463              		.section	.text.mpu6500_getAccel,"ax",@progbits
 464              		.align	1
 465              		.globl	mpu6500_getAccel
 467              	mpu6500_getAccel:
 468              	.LFB7:
  81:lib/mpu/src/mpu6500_driver.c **** 
  82:lib/mpu/src/mpu6500_driver.c **** int mpu6500_getAccel(mpu_vector_t* pAccel){
 469              		.loc 1 82 43 is_stmt 1
 470              		.cfi_startproc
 471              	.LVL49:
  83:lib/mpu/src/mpu6500_driver.c **** 	mpu_raw_vector_t accel;
 472              		.loc 1 83 2
  84:lib/mpu/src/mpu6500_driver.c **** 	read_mpu(MPU6500_ACCEL_XOUT_H, 6, (uint8_t*) &accel);
 473              		.loc 1 84 2
 474              	.LBB88:
 475              	.LBB89:
  14:lib/mpu/src/mpu6500_driver.c **** }
 476              		.loc 1 14 2 is_stmt 0
 477 0000 B7070000 		lui	a5,%hi(cb)
 478              	.LBE89:
 479              	.LBE88:
  82:lib/mpu/src/mpu6500_driver.c **** 	mpu_raw_vector_t accel;
 480              		.loc 1 82 43
 481 0004 0111     		addi	sp,sp,-32
 482              	.LCFI4:
 483              		.cfi_def_cfa_offset 32
 484              	.LVL50:
 485              	.LBB94:
 486              	.LBB90:
  14:lib/mpu/src/mpu6500_driver.c **** }
 487              		.loc 1 14 2 is_stmt 1
 488 0006 93870700 		addi	a5,a5,%lo(cb)
 489              	.LBE90:
 490              	.LBE94:
  82:lib/mpu/src/mpu6500_driver.c **** 	mpu_raw_vector_t accel;
 491              		.loc 1 82 43 is_stmt 0
 492 000a 22CC     		sw	s0,24(sp)
 493              	.LBB95:
 494              	.LBB91:
  14:lib/mpu/src/mpu6500_driver.c **** }
 495              		.loc 1 14 2
 496 000c 03A80700 		lw	a6,0(a5)
 497              		.cfi_offset 8, -8
 498              	.LBE91:
 499              	.LBE95:
  82:lib/mpu/src/mpu6500_driver.c **** 	mpu_raw_vector_t accel;
 500              		.loc 1 82 43
 501 0010 2A84     		mv	s0,a0
 502              	.LBB96:
 503              	.LBB92:
  14:lib/mpu/src/mpu6500_driver.c **** }
 504              		.loc 1 14 2
 505 0012 C847     		lw	a0,12(a5)
GAS LISTING /var/folders/v8/5w7qrjpd37x60gtz_mwnrxpr0000gn/T//cc3AmiH8.s 			page 12


 506              	.LVL51:
 507              	.LBE92:
 508              	.LBE96:
  82:lib/mpu/src/mpu6500_driver.c **** 	mpu_raw_vector_t accel;
 509              		.loc 1 82 43
 510 0014 06CE     		sw	ra,28(sp)
 511              		.cfi_offset 1, -4
 512              	.LBB97:
 513              	.LBB93:
  14:lib/mpu/src/mpu6500_driver.c **** }
 514              		.loc 1 14 2
 515 0016 9946     		li	a3,6
 516 0018 1306B003 		li	a2,59
 517 001c 93058006 		li	a1,104
 518 0020 3800     		addi	a4,sp,8
 519              	.LVL52:
 520 0022 0298     		jalr	a6
 521              	.LVL53:
 522              	.LBE93:
 523              	.LBE97:
  85:lib/mpu/src/mpu6500_driver.c **** 	pAccel->x = (float) flip_bytes(accel.x);
 524              		.loc 1 85 2 is_stmt 1
 525              		.loc 1 85 22 is_stmt 0
 526 0024 83178100 		lh	a5,8(sp)
 527              	.LVL54:
 528              	.LBB98:
 529              	.LBB99:
  22:lib/mpu/src/mpu6500_driver.c **** 	uint8_t temp = pByte[1];
 530              		.loc 1 22 2 is_stmt 1
  23:lib/mpu/src/mpu6500_driver.c **** 	pByte[1] = pByte[0];
 531              		.loc 1 23 2
  24:lib/mpu/src/mpu6500_driver.c **** 	pByte[0] = temp;
 532              		.loc 1 24 2
  25:lib/mpu/src/mpu6500_driver.c **** 	return bt; 
 533              		.loc 1 25 11 is_stmt 0
 534 0028 13D78700 		srli	a4,a5,8
  24:lib/mpu/src/mpu6500_driver.c **** 	pByte[0] = temp;
 535              		.loc 1 24 11
 536 002c A303F100 		sb	a5,7(sp)
 537              	.LVL55:
  25:lib/mpu/src/mpu6500_driver.c **** 	return bt; 
 538              		.loc 1 25 2 is_stmt 1
  25:lib/mpu/src/mpu6500_driver.c **** 	return bt; 
 539              		.loc 1 25 11 is_stmt 0
 540 0030 2303E100 		sb	a4,6(sp)
  26:lib/mpu/src/mpu6500_driver.c **** }
 541              		.loc 1 26 2 is_stmt 1
 542              	.LVL56:
 543              	.LBE99:
 544              	.LBE98:
 545              		.loc 1 85 14 is_stmt 0
 546 0034 03156100 		lh	a0,6(sp)
 547 0038 97000000 		call	__floatsisf
 547      E7800000 
 548              	.LVL57:
  86:lib/mpu/src/mpu6500_driver.c **** 	pAccel->y = (float) flip_bytes(accel.y);
 549              		.loc 1 86 22
GAS LISTING /var/folders/v8/5w7qrjpd37x60gtz_mwnrxpr0000gn/T//cc3AmiH8.s 			page 13


 550 0040 8317A100 		lh	a5,10(sp)
  85:lib/mpu/src/mpu6500_driver.c **** 	pAccel->y = (float) flip_bytes(accel.y);
 551              		.loc 1 85 14
 552 0044 08C0     		sw	a0,0(s0)
 553              		.loc 1 86 2 is_stmt 1
 554              	.LVL58:
 555              	.LBB100:
 556              	.LBB101:
  22:lib/mpu/src/mpu6500_driver.c **** 	uint8_t temp = pByte[1];
 557              		.loc 1 22 2
  23:lib/mpu/src/mpu6500_driver.c **** 	pByte[1] = pByte[0];
 558              		.loc 1 23 2
  24:lib/mpu/src/mpu6500_driver.c **** 	pByte[0] = temp;
 559              		.loc 1 24 2
  25:lib/mpu/src/mpu6500_driver.c **** 	return bt; 
 560              		.loc 1 25 11 is_stmt 0
 561 0046 13D78700 		srli	a4,a5,8
  24:lib/mpu/src/mpu6500_driver.c **** 	pByte[0] = temp;
 562              		.loc 1 24 11
 563 004a A303F100 		sb	a5,7(sp)
  25:lib/mpu/src/mpu6500_driver.c **** 	return bt; 
 564              		.loc 1 25 2 is_stmt 1
  25:lib/mpu/src/mpu6500_driver.c **** 	return bt; 
 565              		.loc 1 25 11 is_stmt 0
 566 004e 2303E100 		sb	a4,6(sp)
  26:lib/mpu/src/mpu6500_driver.c **** }
 567              		.loc 1 26 2 is_stmt 1
 568              	.LVL59:
 569              	.LBE101:
 570              	.LBE100:
 571              		.loc 1 86 14 is_stmt 0
 572 0052 03156100 		lh	a0,6(sp)
 573 0056 97000000 		call	__floatsisf
 573      E7800000 
 574              	.LVL60:
  87:lib/mpu/src/mpu6500_driver.c **** 	pAccel->z = (float) flip_bytes(accel.z);
 575              		.loc 1 87 22
 576 005e 8317C100 		lh	a5,12(sp)
  86:lib/mpu/src/mpu6500_driver.c **** 	pAccel->z = (float) flip_bytes(accel.z);
 577              		.loc 1 86 14
 578 0062 48C0     		sw	a0,4(s0)
 579              		.loc 1 87 2 is_stmt 1
 580              	.LVL61:
 581              	.LBB102:
 582              	.LBB103:
  22:lib/mpu/src/mpu6500_driver.c **** 	uint8_t temp = pByte[1];
 583              		.loc 1 22 2
  23:lib/mpu/src/mpu6500_driver.c **** 	pByte[1] = pByte[0];
 584              		.loc 1 23 2
  24:lib/mpu/src/mpu6500_driver.c **** 	pByte[0] = temp;
 585              		.loc 1 24 2
  25:lib/mpu/src/mpu6500_driver.c **** 	return bt; 
 586              		.loc 1 25 11 is_stmt 0
 587 0064 13D78700 		srli	a4,a5,8
  24:lib/mpu/src/mpu6500_driver.c **** 	pByte[0] = temp;
 588              		.loc 1 24 11
 589 0068 A303F100 		sb	a5,7(sp)
GAS LISTING /var/folders/v8/5w7qrjpd37x60gtz_mwnrxpr0000gn/T//cc3AmiH8.s 			page 14


  25:lib/mpu/src/mpu6500_driver.c **** 	return bt; 
 590              		.loc 1 25 2 is_stmt 1
  25:lib/mpu/src/mpu6500_driver.c **** 	return bt; 
 591              		.loc 1 25 11 is_stmt 0
 592 006c 2303E100 		sb	a4,6(sp)
  26:lib/mpu/src/mpu6500_driver.c **** }
 593              		.loc 1 26 2 is_stmt 1
 594              	.LVL62:
 595              	.LBE103:
 596              	.LBE102:
 597              		.loc 1 87 14 is_stmt 0
 598 0070 03156100 		lh	a0,6(sp)
 599 0074 97000000 		call	__floatsisf
 599      E7800000 
 600              	.LVL63:
 601 007c 08C4     		sw	a0,8(s0)
  88:lib/mpu/src/mpu6500_driver.c **** 	return 1;
 602              		.loc 1 88 2 is_stmt 1
  89:lib/mpu/src/mpu6500_driver.c **** }
 603              		.loc 1 89 1 is_stmt 0
 604 007e F240     		lw	ra,28(sp)
 605              		.cfi_restore 1
 606 0080 6244     		lw	s0,24(sp)
 607              		.cfi_restore 8
 608              	.LVL64:
 609 0082 0545     		li	a0,1
 610 0084 0561     		addi	sp,sp,32
 611              	.LCFI5:
 612              		.cfi_def_cfa_offset 0
 613              	.LVL65:
 614 0086 8280     		jr	ra
 615              		.cfi_endproc
 616              	.LFE7:
 618              		.section	.text.mpu6500_getGyro,"ax",@progbits
 619              		.align	1
 620              		.globl	mpu6500_getGyro
 622              	mpu6500_getGyro:
 623              	.LFB8:
  90:lib/mpu/src/mpu6500_driver.c **** 
  91:lib/mpu/src/mpu6500_driver.c **** int mpu6500_getGyro(mpu_vector_t* pGyro){
 624              		.loc 1 91 41 is_stmt 1
 625              		.cfi_startproc
 626              	.LVL66:
  92:lib/mpu/src/mpu6500_driver.c **** 	mpu_raw_vector_t gyro;
 627              		.loc 1 92 2
  93:lib/mpu/src/mpu6500_driver.c **** 	read_mpu(MPU6500_GYRO_XOUT_H, 6, (uint8_t*) &gyro);
 628              		.loc 1 93 2
 629              	.LBB104:
 630              	.LBB105:
  14:lib/mpu/src/mpu6500_driver.c **** }
 631              		.loc 1 14 2 is_stmt 0
 632 0000 B7070000 		lui	a5,%hi(cb)
 633              	.LBE105:
 634              	.LBE104:
  91:lib/mpu/src/mpu6500_driver.c **** 	mpu_raw_vector_t gyro;
 635              		.loc 1 91 41
 636 0004 0111     		addi	sp,sp,-32
GAS LISTING /var/folders/v8/5w7qrjpd37x60gtz_mwnrxpr0000gn/T//cc3AmiH8.s 			page 15


 637              	.LCFI6:
 638              		.cfi_def_cfa_offset 32
 639              	.LVL67:
 640              	.LBB110:
 641              	.LBB106:
  14:lib/mpu/src/mpu6500_driver.c **** }
 642              		.loc 1 14 2 is_stmt 1
 643 0006 93870700 		addi	a5,a5,%lo(cb)
 644              	.LBE106:
 645              	.LBE110:
  91:lib/mpu/src/mpu6500_driver.c **** 	mpu_raw_vector_t gyro;
 646              		.loc 1 91 41 is_stmt 0
 647 000a 22CC     		sw	s0,24(sp)
 648              	.LBB111:
 649              	.LBB107:
  14:lib/mpu/src/mpu6500_driver.c **** }
 650              		.loc 1 14 2
 651 000c 03A80700 		lw	a6,0(a5)
 652              		.cfi_offset 8, -8
 653              	.LBE107:
 654              	.LBE111:
  91:lib/mpu/src/mpu6500_driver.c **** 	mpu_raw_vector_t gyro;
 655              		.loc 1 91 41
 656 0010 2A84     		mv	s0,a0
 657              	.LBB112:
 658              	.LBB108:
  14:lib/mpu/src/mpu6500_driver.c **** }
 659              		.loc 1 14 2
 660 0012 C847     		lw	a0,12(a5)
 661              	.LVL68:
 662              	.LBE108:
 663              	.LBE112:
  91:lib/mpu/src/mpu6500_driver.c **** 	mpu_raw_vector_t gyro;
 664              		.loc 1 91 41
 665 0014 06CE     		sw	ra,28(sp)
 666              		.cfi_offset 1, -4
 667              	.LBB113:
 668              	.LBB109:
  14:lib/mpu/src/mpu6500_driver.c **** }
 669              		.loc 1 14 2
 670 0016 9946     		li	a3,6
 671 0018 13063004 		li	a2,67
 672 001c 93058006 		li	a1,104
 673 0020 3800     		addi	a4,sp,8
 674              	.LVL69:
 675 0022 0298     		jalr	a6
 676              	.LVL70:
 677              	.LBE109:
 678              	.LBE113:
  94:lib/mpu/src/mpu6500_driver.c **** 	pGyro->x = (float) flip_bytes(gyro.x);
 679              		.loc 1 94 2 is_stmt 1
 680              		.loc 1 94 21 is_stmt 0
 681 0024 83178100 		lh	a5,8(sp)
 682              	.LVL71:
 683              	.LBB114:
 684              	.LBB115:
  22:lib/mpu/src/mpu6500_driver.c **** 	uint8_t temp = pByte[1];
GAS LISTING /var/folders/v8/5w7qrjpd37x60gtz_mwnrxpr0000gn/T//cc3AmiH8.s 			page 16


 685              		.loc 1 22 2 is_stmt 1
  23:lib/mpu/src/mpu6500_driver.c **** 	pByte[1] = pByte[0];
 686              		.loc 1 23 2
  24:lib/mpu/src/mpu6500_driver.c **** 	pByte[0] = temp;
 687              		.loc 1 24 2
  25:lib/mpu/src/mpu6500_driver.c **** 	return bt; 
 688              		.loc 1 25 11 is_stmt 0
 689 0028 13D78700 		srli	a4,a5,8
  24:lib/mpu/src/mpu6500_driver.c **** 	pByte[0] = temp;
 690              		.loc 1 24 11
 691 002c A303F100 		sb	a5,7(sp)
 692              	.LVL72:
  25:lib/mpu/src/mpu6500_driver.c **** 	return bt; 
 693              		.loc 1 25 2 is_stmt 1
  25:lib/mpu/src/mpu6500_driver.c **** 	return bt; 
 694              		.loc 1 25 11 is_stmt 0
 695 0030 2303E100 		sb	a4,6(sp)
  26:lib/mpu/src/mpu6500_driver.c **** }
 696              		.loc 1 26 2 is_stmt 1
 697              	.LVL73:
 698              	.LBE115:
 699              	.LBE114:
 700              		.loc 1 94 13 is_stmt 0
 701 0034 03156100 		lh	a0,6(sp)
 702 0038 97000000 		call	__floatsisf
 702      E7800000 
 703              	.LVL74:
  95:lib/mpu/src/mpu6500_driver.c **** 	pGyro->y = (float) flip_bytes(gyro.y);
 704              		.loc 1 95 21
 705 0040 8317A100 		lh	a5,10(sp)
  94:lib/mpu/src/mpu6500_driver.c **** 	pGyro->y = (float) flip_bytes(gyro.y);
 706              		.loc 1 94 13
 707 0044 08C0     		sw	a0,0(s0)
 708              		.loc 1 95 2 is_stmt 1
 709              	.LVL75:
 710              	.LBB116:
 711              	.LBB117:
  22:lib/mpu/src/mpu6500_driver.c **** 	uint8_t temp = pByte[1];
 712              		.loc 1 22 2
  23:lib/mpu/src/mpu6500_driver.c **** 	pByte[1] = pByte[0];
 713              		.loc 1 23 2
  24:lib/mpu/src/mpu6500_driver.c **** 	pByte[0] = temp;
 714              		.loc 1 24 2
  25:lib/mpu/src/mpu6500_driver.c **** 	return bt; 
 715              		.loc 1 25 11 is_stmt 0
 716 0046 13D78700 		srli	a4,a5,8
  24:lib/mpu/src/mpu6500_driver.c **** 	pByte[0] = temp;
 717              		.loc 1 24 11
 718 004a A303F100 		sb	a5,7(sp)
  25:lib/mpu/src/mpu6500_driver.c **** 	return bt; 
 719              		.loc 1 25 2 is_stmt 1
  25:lib/mpu/src/mpu6500_driver.c **** 	return bt; 
 720              		.loc 1 25 11 is_stmt 0
 721 004e 2303E100 		sb	a4,6(sp)
  26:lib/mpu/src/mpu6500_driver.c **** }
 722              		.loc 1 26 2 is_stmt 1
 723              	.LVL76:
GAS LISTING /var/folders/v8/5w7qrjpd37x60gtz_mwnrxpr0000gn/T//cc3AmiH8.s 			page 17


 724              	.LBE117:
 725              	.LBE116:
 726              		.loc 1 95 13 is_stmt 0
 727 0052 03156100 		lh	a0,6(sp)
 728 0056 97000000 		call	__floatsisf
 728      E7800000 
 729              	.LVL77:
  96:lib/mpu/src/mpu6500_driver.c **** 	pGyro->z = (float) flip_bytes(gyro.z);
 730              		.loc 1 96 21
 731 005e 8317C100 		lh	a5,12(sp)
  95:lib/mpu/src/mpu6500_driver.c **** 	pGyro->z = (float) flip_bytes(gyro.z);
 732              		.loc 1 95 13
 733 0062 48C0     		sw	a0,4(s0)
 734              		.loc 1 96 2 is_stmt 1
 735              	.LVL78:
 736              	.LBB118:
 737              	.LBB119:
  22:lib/mpu/src/mpu6500_driver.c **** 	uint8_t temp = pByte[1];
 738              		.loc 1 22 2
  23:lib/mpu/src/mpu6500_driver.c **** 	pByte[1] = pByte[0];
 739              		.loc 1 23 2
  24:lib/mpu/src/mpu6500_driver.c **** 	pByte[0] = temp;
 740              		.loc 1 24 2
  25:lib/mpu/src/mpu6500_driver.c **** 	return bt; 
 741              		.loc 1 25 11 is_stmt 0
 742 0064 13D78700 		srli	a4,a5,8
  24:lib/mpu/src/mpu6500_driver.c **** 	pByte[0] = temp;
 743              		.loc 1 24 11
 744 0068 A303F100 		sb	a5,7(sp)
  25:lib/mpu/src/mpu6500_driver.c **** 	return bt; 
 745              		.loc 1 25 2 is_stmt 1
  25:lib/mpu/src/mpu6500_driver.c **** 	return bt; 
 746              		.loc 1 25 11 is_stmt 0
 747 006c 2303E100 		sb	a4,6(sp)
  26:lib/mpu/src/mpu6500_driver.c **** }
 748              		.loc 1 26 2 is_stmt 1
 749              	.LVL79:
 750              	.LBE119:
 751              	.LBE118:
 752              		.loc 1 96 13 is_stmt 0
 753 0070 03156100 		lh	a0,6(sp)
 754 0074 97000000 		call	__floatsisf
 754      E7800000 
 755              	.LVL80:
 756 007c 08C4     		sw	a0,8(s0)
  97:lib/mpu/src/mpu6500_driver.c **** 	return 1;
 757              		.loc 1 97 2 is_stmt 1
  98:lib/mpu/src/mpu6500_driver.c **** }
 758              		.loc 1 98 1 is_stmt 0
 759 007e F240     		lw	ra,28(sp)
 760              		.cfi_restore 1
 761 0080 6244     		lw	s0,24(sp)
 762              		.cfi_restore 8
 763              	.LVL81:
 764 0082 0545     		li	a0,1
 765 0084 0561     		addi	sp,sp,32
 766              	.LCFI7:
GAS LISTING /var/folders/v8/5w7qrjpd37x60gtz_mwnrxpr0000gn/T//cc3AmiH8.s 			page 18


 767              		.cfi_def_cfa_offset 0
 768              	.LVL82:
 769 0086 8280     		jr	ra
 770              		.cfi_endproc
 771              	.LFE8:
 773              		.section	.text.mpu6500_getGyroAccel,"ax",@progbits
 774              		.align	1
 775              		.globl	mpu6500_getGyroAccel
 777              	mpu6500_getGyroAccel:
 778              	.LFB9:
  99:lib/mpu/src/mpu6500_driver.c **** 
 100:lib/mpu/src/mpu6500_driver.c **** int mpu6500_getGyroAccel(mpu_vector_t* pGyro, mpu_vector_t* pAccel){
 779              		.loc 1 100 68 is_stmt 1
 780              		.cfi_startproc
 781              	.LVL83:
 101:lib/mpu/src/mpu6500_driver.c **** 	mpu6500_getAccel(pAccel);
 782              		.loc 1 101 2
 100:lib/mpu/src/mpu6500_driver.c **** 	mpu6500_getAccel(pAccel);
 783              		.loc 1 100 68 is_stmt 0
 784 0000 4111     		addi	sp,sp,-16
 785              	.LCFI8:
 786              		.cfi_def_cfa_offset 16
 787 0002 22C4     		sw	s0,8(sp)
 788              		.cfi_offset 8, -8
 789 0004 2A84     		mv	s0,a0
 790              		.loc 1 101 2
 791 0006 2E85     		mv	a0,a1
 792              	.LVL84:
 100:lib/mpu/src/mpu6500_driver.c **** 	mpu6500_getAccel(pAccel);
 793              		.loc 1 100 68
 794 0008 06C6     		sw	ra,12(sp)
 795              		.cfi_offset 1, -4
 796              		.loc 1 101 2
 797 000a 97000000 		call	mpu6500_getAccel
 797      E7800000 
 798              	.LVL85:
 102:lib/mpu/src/mpu6500_driver.c **** 	mpu6500_getGyro(pGyro);
 799              		.loc 1 102 2 is_stmt 1
 800 0012 2285     		mv	a0,s0
 801 0014 97000000 		call	mpu6500_getGyro
 801      E7800000 
 802              	.LVL86:
 103:lib/mpu/src/mpu6500_driver.c **** 	return 1;
 803              		.loc 1 103 2
 104:lib/mpu/src/mpu6500_driver.c **** }
 804              		.loc 1 104 1 is_stmt 0
 805 001c B240     		lw	ra,12(sp)
 806              		.cfi_restore 1
 807 001e 2244     		lw	s0,8(sp)
 808              		.cfi_restore 8
 809              	.LVL87:
 810 0020 0545     		li	a0,1
 811 0022 4101     		addi	sp,sp,16
 812              	.LCFI9:
 813              		.cfi_def_cfa_offset 0
 814 0024 8280     		jr	ra
 815              		.cfi_endproc
GAS LISTING /var/folders/v8/5w7qrjpd37x60gtz_mwnrxpr0000gn/T//cc3AmiH8.s 			page 19


 816              	.LFE9:
 818              		.comm	cb,16,4
 819              		.text
 820              	.Letext0:
 821              		.file 2 "/Users/gulda/Desktop/toolchain-gd32v-osx/compiler/riscv64-unknown-elf/include/machine/_de
 822              		.file 3 "/Users/gulda/Desktop/toolchain-gd32v-osx/compiler/lib/gcc/riscv64-unknown-elf/8.3.0/inclu
 823              		.file 4 "/Users/gulda/Desktop/toolchain-gd32v-osx/compiler/riscv64-unknown-elf/include/sys/_types.
 824              		.file 5 "/Users/gulda/Desktop/toolchain-gd32v-osx/compiler/riscv64-unknown-elf/include/sys/reent.h
 825              		.file 6 "/Users/gulda/Desktop/toolchain-gd32v-osx/compiler/riscv64-unknown-elf/include/sys/lock.h"
 826              		.file 7 "/Users/gulda/Desktop/toolchain-gd32v-osx/compiler/riscv64-unknown-elf/include/sys/_stdint
 827              		.file 8 "lib/mpu/include/mpu6500_driver.h"
GAS LISTING /var/folders/v8/5w7qrjpd37x60gtz_mwnrxpr0000gn/T//cc3AmiH8.s 			page 20

