GAS LISTING /var/folders/v8/5w7qrjpd37x60gtz_mwnrxpr0000gn/T//ccVa9wQ9.s 			page 1


   1              		.file	"pwm.c"
   2              		.option nopic
   3              		.attribute arch, "rv32i2p0_m2p0_a2p0_c2p0"
   4              		.attribute unaligned_access, 0
   5              		.attribute stack_align, 16
   6              		.text
   7              	.Ltext0:
   8              		.cfi_sections	.debug_frame
   9              		.section	.text.initMotorA,"ax",@progbits
  10              		.align	1
  11              		.globl	initMotorA
  13              	initMotorA:
  14              	.LFB2:
  15              		.file 1 "pwm.c"
   1:pwm.c         **** #include "pwm.h"
   2:pwm.c         **** #include "delay.h"
   3:pwm.c         **** 
   4:pwm.c         **** /****************************SERVO-CODE************************************/
   5:pwm.c         **** 
   6:pwm.c         **** void initMotorA(void){
  16              		.loc 1 6 22
  17              		.cfi_startproc
   7:pwm.c         ****     rcu_periph_clock_enable(RCU_GPIOA);
  18              		.loc 1 7 5
   6:pwm.c         ****     rcu_periph_clock_enable(RCU_GPIOA);
  19              		.loc 1 6 22 is_stmt 0
  20 0000 7971     		addi	sp,sp,-48
  21              	.LCFI0:
  22              		.cfi_def_cfa_offset 48
  23              		.loc 1 7 5
  24 0002 13052060 		li	a0,1538
   6:pwm.c         ****     rcu_periph_clock_enable(RCU_GPIOA);
  25              		.loc 1 6 22
  26 0006 06D6     		sw	ra,44(sp)
  27 0008 22D4     		sw	s0,40(sp)
  28              		.cfi_offset 1, -4
  29              		.cfi_offset 8, -8
  30              		.loc 1 7 5
  31 000a 97000000 		call	rcu_periph_clock_enable
  31      E7800000 
  32              	.LVL0:
   8:pwm.c         ****     rcu_periph_clock_enable(RCU_TIMER0);
  33              		.loc 1 8 5 is_stmt 1
  34 0012 1305B060 		li	a0,1547
  35 0016 97000000 		call	rcu_periph_clock_enable
  35      E7800000 
  36              	.LVL1:
   9:pwm.c         **** 
  10:pwm.c         ****     gpio_init(GPIOA, GPIO_MODE_AF_PP, GPIO_OSPEED_50MHZ, GPIO_PIN_8);
  37              		.loc 1 10 5
  38 001e 37150140 		li	a0,1073811456
  39 0022 93060010 		li	a3,256
  40 0026 0D46     		li	a2,3
  41 0028 E145     		li	a1,24
  42 002a 13050580 		addi	a0,a0,-2048
  43 002e 97000000 		call	gpio_init
  43      E7800000 
GAS LISTING /var/folders/v8/5w7qrjpd37x60gtz_mwnrxpr0000gn/T//ccVa9wQ9.s 			page 2


  44              	.LVL2:
  11:pwm.c         **** 
  12:pwm.c         ****     timer_parameter_struct timer_initpara;
  45              		.loc 1 12 5
  13:pwm.c         ****     timer_initpara.prescaler         = 107;                         //SCALE CLOCK TO 1MHz
  46              		.loc 1 13 5
  14:pwm.c         ****     timer_initpara.alignedmode       = TIMER_COUNTER_EDGE;
  47              		.loc 1 14 5
  15:pwm.c         ****     timer_initpara.counterdirection  = TIMER_COUNTER_UP;
  48              		.loc 1 15 5
  16:pwm.c         ****     timer_initpara.period            = 0;
  17:pwm.c         ****     timer_initpara.clockdivision     = TIMER_CKDIV_DIV1;
  18:pwm.c         ****     timer_initpara.repetitioncounter = 0;
  19:pwm.c         ****     timer_init(TIMER0, &timer_initpara);
  49              		.loc 1 19 5 is_stmt 0
  50 0036 37340140 		li	s0,1073819648
  51 003a 0C08     		addi	a1,sp,16
  52 003c 130504C0 		addi	a0,s0,-1024
  13:pwm.c         ****     timer_initpara.alignedmode       = TIMER_COUNTER_EDGE;
  53              		.loc 1 13 38
  54 0040 9307B006 		li	a5,107
  55 0044 3EC8     		sw	a5,16(sp)
  15:pwm.c         ****     timer_initpara.counterdirection  = TIMER_COUNTER_UP;
  56              		.loc 1 15 38
  57 0046 231A0100 		sh	zero,20(sp)
  16:pwm.c         ****     timer_initpara.period            = 0;
  58              		.loc 1 16 5 is_stmt 1
  16:pwm.c         ****     timer_initpara.period            = 0;
  59              		.loc 1 16 38 is_stmt 0
  60 004a 02CC     		sw	zero,24(sp)
  17:pwm.c         ****     timer_initpara.repetitioncounter = 0;
  61              		.loc 1 17 5 is_stmt 1
  17:pwm.c         ****     timer_initpara.repetitioncounter = 0;
  62              		.loc 1 17 38 is_stmt 0
  63 004c 231E0100 		sh	zero,28(sp)
  18:pwm.c         ****     timer_init(TIMER0, &timer_initpara);
  64              		.loc 1 18 5 is_stmt 1
  18:pwm.c         ****     timer_init(TIMER0, &timer_initpara);
  65              		.loc 1 18 38 is_stmt 0
  66 0050 230F0100 		sb	zero,30(sp)
  67              		.loc 1 19 5 is_stmt 1
  68 0054 97000000 		call	timer_init
  68      E7800000 
  69              	.LVL3:
  20:pwm.c         **** 
  21:pwm.c         ****     timer_oc_parameter_struct timer_ocinitpara;
  70              		.loc 1 21 5
  22:pwm.c         ****     timer_ocinitpara.outputstate    = TIMER_CCX_ENABLE;
  71              		.loc 1 22 5
  23:pwm.c         ****     timer_ocinitpara.outputnstate   = TIMER_CCXN_DISABLE;
  72              		.loc 1 23 5
  24:pwm.c         ****     timer_ocinitpara.ocpolarity     = TIMER_OC_POLARITY_HIGH;
  73              		.loc 1 24 5
  25:pwm.c         ****     timer_ocinitpara.ocnpolarity    = TIMER_OCN_POLARITY_HIGH;
  74              		.loc 1 25 5
  26:pwm.c         ****     timer_ocinitpara.ocidlestate    = TIMER_OC_IDLE_STATE_LOW;
  75              		.loc 1 26 5
GAS LISTING /var/folders/v8/5w7qrjpd37x60gtz_mwnrxpr0000gn/T//ccVa9wQ9.s 			page 3


  27:pwm.c         ****     timer_ocinitpara.ocnidlestate   = TIMER_OC_IDLE_STATE_LOW;
  76              		.loc 1 27 5
  22:pwm.c         ****     timer_ocinitpara.outputnstate   = TIMER_CCXN_DISABLE;
  77              		.loc 1 22 37 is_stmt 0
  78 005c 8547     		li	a5,1
  28:pwm.c         ****     timer_channel_output_config(TIMER0, TIMER_CH_0, &timer_ocinitpara);
  79              		.loc 1 28 5
  80 005e 5000     		addi	a2,sp,4
  81 0060 130504C0 		addi	a0,s0,-1024
  82 0064 8145     		li	a1,0
  22:pwm.c         ****     timer_ocinitpara.outputnstate   = TIMER_CCXN_DISABLE;
  83              		.loc 1 22 37
  84 0066 3EC2     		sw	a5,4(sp)
  24:pwm.c         ****     timer_ocinitpara.ocnpolarity    = TIMER_OCN_POLARITY_HIGH;
  85              		.loc 1 24 37
  86 0068 02C4     		sw	zero,8(sp)
  26:pwm.c         ****     timer_ocinitpara.ocnidlestate   = TIMER_OC_IDLE_STATE_LOW;
  87              		.loc 1 26 37
  88 006a 02C6     		sw	zero,12(sp)
  89              		.loc 1 28 5 is_stmt 1
  90 006c 97000000 		call	timer_channel_output_config
  90      E7800000 
  91              	.LVL4:
  29:pwm.c         **** 
  30:pwm.c         ****     timer_autoreload_value_config(TIMER0, 19999);                   //PERIOD IS 50MS LONG
  92              		.loc 1 30 5
  93 0074 9565     		li	a1,20480
  94 0076 130504C0 		addi	a0,s0,-1024
  95 007a 9385F5E1 		addi	a1,a1,-481
  96 007e 97000000 		call	timer_autoreload_value_config
  96      E7800000 
  97              	.LVL5:
  31:pwm.c         **** 
  32:pwm.c         ****     timer_channel_output_mode_config(TIMER0, TIMER_CH_0, TIMER_OC_MODE_PWM0);
  98              		.loc 1 32 5
  99 0086 130504C0 		addi	a0,s0,-1024
 100 008a 13060006 		li	a2,96
 101 008e 8145     		li	a1,0
 102 0090 97000000 		call	timer_channel_output_mode_config
 102      E7800000 
 103              	.LVL6:
  33:pwm.c         ****     timer_channel_output_shadow_config(TIMER0, TIMER_CH_0, TIMER_OC_SHADOW_DISABLE);
 104              		.loc 1 33 5
 105 0098 130504C0 		addi	a0,s0,-1024
 106 009c 0146     		li	a2,0
 107 009e 8145     		li	a1,0
 108 00a0 97000000 		call	timer_channel_output_shadow_config
 108      E7800000 
 109              	.LVL7:
  34:pwm.c         ****     timer_channel_output_pulse_value_config(TIMER0, TIMER_CH_0, 1000);
 110              		.loc 1 34 5
 111 00a8 1306803E 		li	a2,1000
 112 00ac 130504C0 		addi	a0,s0,-1024
 113 00b0 8145     		li	a1,0
 114 00b2 97000000 		call	timer_channel_output_pulse_value_config
 114      E7800000 
 115              	.LVL8:
GAS LISTING /var/folders/v8/5w7qrjpd37x60gtz_mwnrxpr0000gn/T//ccVa9wQ9.s 			page 4


  35:pwm.c         **** 
  36:pwm.c         ****     timer_primary_output_config(TIMER0, ENABLE);
 116              		.loc 1 36 5
 117 00ba 130504C0 		addi	a0,s0,-1024
 118 00be 8545     		li	a1,1
 119 00c0 97000000 		call	timer_primary_output_config
 119      E7800000 
 120              	.LVL9:
  37:pwm.c         ****     timer_enable(TIMER0);
 121              		.loc 1 37 5
 122 00c8 130504C0 		addi	a0,s0,-1024
 123 00cc 97000000 		call	timer_enable
 123      E7800000 
 124              	.LVL10:
  38:pwm.c         **** }
 125              		.loc 1 38 1 is_stmt 0
 126 00d4 B250     		lw	ra,44(sp)
 127              		.cfi_restore 1
 128 00d6 2254     		lw	s0,40(sp)
 129              		.cfi_restore 8
 130 00d8 4561     		addi	sp,sp,48
 131              	.LCFI1:
 132              		.cfi_def_cfa_offset 0
 133 00da 8280     		jr	ra
 134              		.cfi_endproc
 135              	.LFE2:
 137              		.section	.text.SetMotorA,"ax",@progbits
 138              		.align	1
 139              		.globl	SetMotorA
 141              	SetMotorA:
 142              	.LFB3:
  39:pwm.c         **** 
  40:pwm.c         **** void SetMotorA(int throttle){ 
 143              		.loc 1 40 29 is_stmt 1
 144              		.cfi_startproc
 145              	.LVL11:
  41:pwm.c         ****     timer_channel_output_pulse_value_config(TIMER0, TIMER_CH_0, throttle+1000);
 146              		.loc 1 41 5
 147 0000 1306853E 		addi	a2,a0,1000
 148 0004 37350140 		li	a0,1073819648
 149              	.LVL12:
 150 0008 8145     		li	a1,0
 151 000a 130505C0 		addi	a0,a0,-1024
 152 000e 17030000 		tail	timer_channel_output_pulse_value_config
 152      67000300 
 153              	.LVL13:
 154              		.cfi_endproc
 155              	.LFE3:
 157              		.text
 158              	.Letext0:
 159              		.file 2 "/Users/gulda/Desktop/toolchain-gd32v-osx/compiler/riscv64-unknown-elf/include/machine/_de
 160              		.file 3 "/Users/gulda/Desktop/toolchain-gd32v-osx/compiler/riscv64-unknown-elf/include/sys/_stdint
 161              		.file 4 "../../firmware/GD32VF103_standard_peripheral/gd32vf103.h"
 162              		.file 5 "../../firmware/GD32VF103_standard_peripheral/Include/gd32vf103_rcu.h"
 163              		.file 6 "../../firmware/GD32VF103_standard_peripheral/Include/gd32vf103_timer.h"
 164              		.file 7 "../../firmware/GD32VF103_standard_peripheral/Include/gd32vf103_gpio.h"
 165              		.file 8 "../../firmware/GD32VF103_standard_peripheral/system_gd32vf103.h"
GAS LISTING /var/folders/v8/5w7qrjpd37x60gtz_mwnrxpr0000gn/T//ccVa9wQ9.s 			page 5


GAS LISTING /var/folders/v8/5w7qrjpd37x60gtz_mwnrxpr0000gn/T//ccVa9wQ9.s 			page 6


DEFINED SYMBOLS
                            *ABS*:0000000000000000 pwm.c
/var/folders/v8/5w7qrjpd37x60gtz_mwnrxpr0000gn/T//ccVa9wQ9.s:13     .text.initMotorA:0000000000000000 initMotorA
/var/folders/v8/5w7qrjpd37x60gtz_mwnrxpr0000gn/T//ccVa9wQ9.s:17     .text.initMotorA:0000000000000000 .L0 
/var/folders/v8/5w7qrjpd37x60gtz_mwnrxpr0000gn/T//ccVa9wQ9.s:18     .text.initMotorA:0000000000000000 .L0 
/var/folders/v8/5w7qrjpd37x60gtz_mwnrxpr0000gn/T//ccVa9wQ9.s:19     .text.initMotorA:0000000000000000 .L0 
/var/folders/v8/5w7qrjpd37x60gtz_mwnrxpr0000gn/T//ccVa9wQ9.s:20     .text.initMotorA:0000000000000000 .L0 
/var/folders/v8/5w7qrjpd37x60gtz_mwnrxpr0000gn/T//ccVa9wQ9.s:22     .text.initMotorA:0000000000000002 .L0 
/var/folders/v8/5w7qrjpd37x60gtz_mwnrxpr0000gn/T//ccVa9wQ9.s:24     .text.initMotorA:0000000000000002 .L0 
/var/folders/v8/5w7qrjpd37x60gtz_mwnrxpr0000gn/T//ccVa9wQ9.s:26     .text.initMotorA:0000000000000006 .L0 
/var/folders/v8/5w7qrjpd37x60gtz_mwnrxpr0000gn/T//ccVa9wQ9.s:28     .text.initMotorA:000000000000000a .L0 
/var/folders/v8/5w7qrjpd37x60gtz_mwnrxpr0000gn/T//ccVa9wQ9.s:29     .text.initMotorA:000000000000000a .L0 
/var/folders/v8/5w7qrjpd37x60gtz_mwnrxpr0000gn/T//ccVa9wQ9.s:31     .text.initMotorA:000000000000000a .L0 
/var/folders/v8/5w7qrjpd37x60gtz_mwnrxpr0000gn/T//ccVa9wQ9.s:34     .text.initMotorA:0000000000000012 .L0 
/var/folders/v8/5w7qrjpd37x60gtz_mwnrxpr0000gn/T//ccVa9wQ9.s:38     .text.initMotorA:000000000000001e .L0 
/var/folders/v8/5w7qrjpd37x60gtz_mwnrxpr0000gn/T//ccVa9wQ9.s:46     .text.initMotorA:0000000000000036 .L0 
/var/folders/v8/5w7qrjpd37x60gtz_mwnrxpr0000gn/T//ccVa9wQ9.s:47     .text.initMotorA:0000000000000036 .L0 
/var/folders/v8/5w7qrjpd37x60gtz_mwnrxpr0000gn/T//ccVa9wQ9.s:48     .text.initMotorA:0000000000000036 .L0 
/var/folders/v8/5w7qrjpd37x60gtz_mwnrxpr0000gn/T//ccVa9wQ9.s:49     .text.initMotorA:0000000000000036 .L0 
/var/folders/v8/5w7qrjpd37x60gtz_mwnrxpr0000gn/T//ccVa9wQ9.s:50     .text.initMotorA:0000000000000036 .L0 
/var/folders/v8/5w7qrjpd37x60gtz_mwnrxpr0000gn/T//ccVa9wQ9.s:54     .text.initMotorA:0000000000000040 .L0 
/var/folders/v8/5w7qrjpd37x60gtz_mwnrxpr0000gn/T//ccVa9wQ9.s:57     .text.initMotorA:0000000000000046 .L0 
/var/folders/v8/5w7qrjpd37x60gtz_mwnrxpr0000gn/T//ccVa9wQ9.s:59     .text.initMotorA:000000000000004a .L0 
/var/folders/v8/5w7qrjpd37x60gtz_mwnrxpr0000gn/T//ccVa9wQ9.s:60     .text.initMotorA:000000000000004a .L0 
/var/folders/v8/5w7qrjpd37x60gtz_mwnrxpr0000gn/T//ccVa9wQ9.s:62     .text.initMotorA:000000000000004c .L0 
/var/folders/v8/5w7qrjpd37x60gtz_mwnrxpr0000gn/T//ccVa9wQ9.s:63     .text.initMotorA:000000000000004c .L0 
/var/folders/v8/5w7qrjpd37x60gtz_mwnrxpr0000gn/T//ccVa9wQ9.s:65     .text.initMotorA:0000000000000050 .L0 
/var/folders/v8/5w7qrjpd37x60gtz_mwnrxpr0000gn/T//ccVa9wQ9.s:66     .text.initMotorA:0000000000000050 .L0 
/var/folders/v8/5w7qrjpd37x60gtz_mwnrxpr0000gn/T//ccVa9wQ9.s:68     .text.initMotorA:0000000000000054 .L0 
/var/folders/v8/5w7qrjpd37x60gtz_mwnrxpr0000gn/T//ccVa9wQ9.s:71     .text.initMotorA:000000000000005c .L0 
/var/folders/v8/5w7qrjpd37x60gtz_mwnrxpr0000gn/T//ccVa9wQ9.s:72     .text.initMotorA:000000000000005c .L0 
/var/folders/v8/5w7qrjpd37x60gtz_mwnrxpr0000gn/T//ccVa9wQ9.s:73     .text.initMotorA:000000000000005c .L0 
/var/folders/v8/5w7qrjpd37x60gtz_mwnrxpr0000gn/T//ccVa9wQ9.s:74     .text.initMotorA:000000000000005c .L0 
/var/folders/v8/5w7qrjpd37x60gtz_mwnrxpr0000gn/T//ccVa9wQ9.s:75     .text.initMotorA:000000000000005c .L0 
/var/folders/v8/5w7qrjpd37x60gtz_mwnrxpr0000gn/T//ccVa9wQ9.s:76     .text.initMotorA:000000000000005c .L0 
/var/folders/v8/5w7qrjpd37x60gtz_mwnrxpr0000gn/T//ccVa9wQ9.s:77     .text.initMotorA:000000000000005c .L0 
/var/folders/v8/5w7qrjpd37x60gtz_mwnrxpr0000gn/T//ccVa9wQ9.s:78     .text.initMotorA:000000000000005c .L0 
/var/folders/v8/5w7qrjpd37x60gtz_mwnrxpr0000gn/T//ccVa9wQ9.s:80     .text.initMotorA:000000000000005e .L0 
/var/folders/v8/5w7qrjpd37x60gtz_mwnrxpr0000gn/T//ccVa9wQ9.s:84     .text.initMotorA:0000000000000066 .L0 
/var/folders/v8/5w7qrjpd37x60gtz_mwnrxpr0000gn/T//ccVa9wQ9.s:86     .text.initMotorA:0000000000000068 .L0 
/var/folders/v8/5w7qrjpd37x60gtz_mwnrxpr0000gn/T//ccVa9wQ9.s:88     .text.initMotorA:000000000000006a .L0 
/var/folders/v8/5w7qrjpd37x60gtz_mwnrxpr0000gn/T//ccVa9wQ9.s:90     .text.initMotorA:000000000000006c .L0 
/var/folders/v8/5w7qrjpd37x60gtz_mwnrxpr0000gn/T//ccVa9wQ9.s:93     .text.initMotorA:0000000000000074 .L0 
/var/folders/v8/5w7qrjpd37x60gtz_mwnrxpr0000gn/T//ccVa9wQ9.s:99     .text.initMotorA:0000000000000086 .L0 
/var/folders/v8/5w7qrjpd37x60gtz_mwnrxpr0000gn/T//ccVa9wQ9.s:105    .text.initMotorA:0000000000000098 .L0 
/var/folders/v8/5w7qrjpd37x60gtz_mwnrxpr0000gn/T//ccVa9wQ9.s:111    .text.initMotorA:00000000000000a8 .L0 
/var/folders/v8/5w7qrjpd37x60gtz_mwnrxpr0000gn/T//ccVa9wQ9.s:117    .text.initMotorA:00000000000000ba .L0 
/var/folders/v8/5w7qrjpd37x60gtz_mwnrxpr0000gn/T//ccVa9wQ9.s:122    .text.initMotorA:00000000000000c8 .L0 
/var/folders/v8/5w7qrjpd37x60gtz_mwnrxpr0000gn/T//ccVa9wQ9.s:126    .text.initMotorA:00000000000000d4 .L0 
/var/folders/v8/5w7qrjpd37x60gtz_mwnrxpr0000gn/T//ccVa9wQ9.s:127    .text.initMotorA:00000000000000d6 .L0 
/var/folders/v8/5w7qrjpd37x60gtz_mwnrxpr0000gn/T//ccVa9wQ9.s:129    .text.initMotorA:00000000000000d8 .L0 
/var/folders/v8/5w7qrjpd37x60gtz_mwnrxpr0000gn/T//ccVa9wQ9.s:132    .text.initMotorA:00000000000000da .L0 
/var/folders/v8/5w7qrjpd37x60gtz_mwnrxpr0000gn/T//ccVa9wQ9.s:134    .text.initMotorA:00000000000000dc .L0 
/var/folders/v8/5w7qrjpd37x60gtz_mwnrxpr0000gn/T//ccVa9wQ9.s:141    .text.SetMotorA:0000000000000000 SetMotorA
/var/folders/v8/5w7qrjpd37x60gtz_mwnrxpr0000gn/T//ccVa9wQ9.s:144    .text.SetMotorA:0000000000000000 .L0 
/var/folders/v8/5w7qrjpd37x60gtz_mwnrxpr0000gn/T//ccVa9wQ9.s:146    .text.SetMotorA:0000000000000000 .L0 
/var/folders/v8/5w7qrjpd37x60gtz_mwnrxpr0000gn/T//ccVa9wQ9.s:147    .text.SetMotorA:0000000000000000 .L0 
GAS LISTING /var/folders/v8/5w7qrjpd37x60gtz_mwnrxpr0000gn/T//ccVa9wQ9.s 			page 7


/var/folders/v8/5w7qrjpd37x60gtz_mwnrxpr0000gn/T//ccVa9wQ9.s:154    .text.SetMotorA:0000000000000016 .L0 
/var/folders/v8/5w7qrjpd37x60gtz_mwnrxpr0000gn/T//ccVa9wQ9.s:137    .text.initMotorA:00000000000000dc .L0 
/var/folders/v8/5w7qrjpd37x60gtz_mwnrxpr0000gn/T//ccVa9wQ9.s:157    .text.SetMotorA:0000000000000016 .L0 
                     .debug_frame:0000000000000000 .L0 
/var/folders/v8/5w7qrjpd37x60gtz_mwnrxpr0000gn/T//ccVa9wQ9.s:894    .debug_abbrev:0000000000000000 .Ldebug_abbrev0
/var/folders/v8/5w7qrjpd37x60gtz_mwnrxpr0000gn/T//ccVa9wQ9.s:1420   .debug_str:00000000000002bf .LASF83
/var/folders/v8/5w7qrjpd37x60gtz_mwnrxpr0000gn/T//ccVa9wQ9.s:1362   .debug_str:0000000000000100 .LASF84
/var/folders/v8/5w7qrjpd37x60gtz_mwnrxpr0000gn/T//ccVa9wQ9.s:1398   .debug_str:00000000000001d1 .LASF85
/var/folders/v8/5w7qrjpd37x60gtz_mwnrxpr0000gn/T//ccVa9wQ9.s:1310   .debug_ranges:0000000000000000 .Ldebug_ranges0
/var/folders/v8/5w7qrjpd37x60gtz_mwnrxpr0000gn/T//ccVa9wQ9.s:1318   .debug_line:0000000000000000 .Ldebug_line0
/var/folders/v8/5w7qrjpd37x60gtz_mwnrxpr0000gn/T//ccVa9wQ9.s:1424   .debug_str:0000000000000342 .LASF0
/var/folders/v8/5w7qrjpd37x60gtz_mwnrxpr0000gn/T//ccVa9wQ9.s:1416   .debug_str:000000000000029c .LASF1
/var/folders/v8/5w7qrjpd37x60gtz_mwnrxpr0000gn/T//ccVa9wQ9.s:1492   .debug_str:00000000000004fc .LASF4
/var/folders/v8/5w7qrjpd37x60gtz_mwnrxpr0000gn/T//ccVa9wQ9.s:1406   .debug_str:000000000000025c .LASF2
/var/folders/v8/5w7qrjpd37x60gtz_mwnrxpr0000gn/T//ccVa9wQ9.s:1380   .debug_str:0000000000000152 .LASF3
/var/folders/v8/5w7qrjpd37x60gtz_mwnrxpr0000gn/T//ccVa9wQ9.s:1338   .debug_str:0000000000000060 .LASF5
/var/folders/v8/5w7qrjpd37x60gtz_mwnrxpr0000gn/T//ccVa9wQ9.s:1434   .debug_str:000000000000037d .LASF6
/var/folders/v8/5w7qrjpd37x60gtz_mwnrxpr0000gn/T//ccVa9wQ9.s:1368   .debug_str:000000000000011b .LASF7
/var/folders/v8/5w7qrjpd37x60gtz_mwnrxpr0000gn/T//ccVa9wQ9.s:1334   .debug_str:000000000000004d .LASF8
/var/folders/v8/5w7qrjpd37x60gtz_mwnrxpr0000gn/T//ccVa9wQ9.s:1454   .debug_str:00000000000003fe .LASF9
/var/folders/v8/5w7qrjpd37x60gtz_mwnrxpr0000gn/T//ccVa9wQ9.s:1332   .debug_str:000000000000003f .LASF10
/var/folders/v8/5w7qrjpd37x60gtz_mwnrxpr0000gn/T//ccVa9wQ9.s:1418   .debug_str:00000000000002a8 .LASF11
/var/folders/v8/5w7qrjpd37x60gtz_mwnrxpr0000gn/T//ccVa9wQ9.s:1348   .debug_str:00000000000000bd .LASF12
/var/folders/v8/5w7qrjpd37x60gtz_mwnrxpr0000gn/T//ccVa9wQ9.s:1426   .debug_str:000000000000034f .LASF13
/var/folders/v8/5w7qrjpd37x60gtz_mwnrxpr0000gn/T//ccVa9wQ9.s:1422   .debug_str:0000000000000339 .LASF14
/var/folders/v8/5w7qrjpd37x60gtz_mwnrxpr0000gn/T//ccVa9wQ9.s:1446   .debug_str:00000000000003d6 .LASF86
/var/folders/v8/5w7qrjpd37x60gtz_mwnrxpr0000gn/T//ccVa9wQ9.s:1354   .debug_str:00000000000000da .LASF15
/var/folders/v8/5w7qrjpd37x60gtz_mwnrxpr0000gn/T//ccVa9wQ9.s:1488   .debug_str:00000000000004d4 .LASF16
/var/folders/v8/5w7qrjpd37x60gtz_mwnrxpr0000gn/T//ccVa9wQ9.s:1350   .debug_str:00000000000000c5 .LASF17
/var/folders/v8/5w7qrjpd37x60gtz_mwnrxpr0000gn/T//ccVa9wQ9.s:1448   .debug_str:00000000000003e6 .LASF18
/var/folders/v8/5w7qrjpd37x60gtz_mwnrxpr0000gn/T//ccVa9wQ9.s:1486   .debug_str:00000000000004cc .LASF19
/var/folders/v8/5w7qrjpd37x60gtz_mwnrxpr0000gn/T//ccVa9wQ9.s:1482   .debug_str:00000000000004b7 .LASF20
/var/folders/v8/5w7qrjpd37x60gtz_mwnrxpr0000gn/T//ccVa9wQ9.s:1468   .debug_str:0000000000000455 .LASF21
/var/folders/v8/5w7qrjpd37x60gtz_mwnrxpr0000gn/T//ccVa9wQ9.s:1386   .debug_str:000000000000018f .LASF22
/var/folders/v8/5w7qrjpd37x60gtz_mwnrxpr0000gn/T//ccVa9wQ9.s:1388   .debug_str:000000000000019a .LASF23
/var/folders/v8/5w7qrjpd37x60gtz_mwnrxpr0000gn/T//ccVa9wQ9.s:1390   .debug_str:00000000000001a5 .LASF24
/var/folders/v8/5w7qrjpd37x60gtz_mwnrxpr0000gn/T//ccVa9wQ9.s:1392   .debug_str:00000000000001b0 .LASF25
/var/folders/v8/5w7qrjpd37x60gtz_mwnrxpr0000gn/T//ccVa9wQ9.s:1394   .debug_str:00000000000001bb .LASF26
/var/folders/v8/5w7qrjpd37x60gtz_mwnrxpr0000gn/T//ccVa9wQ9.s:1396   .debug_str:00000000000001c6 .LASF27
/var/folders/v8/5w7qrjpd37x60gtz_mwnrxpr0000gn/T//ccVa9wQ9.s:1364   .debug_str:0000000000000106 .LASF28
/var/folders/v8/5w7qrjpd37x60gtz_mwnrxpr0000gn/T//ccVa9wQ9.s:1372   .debug_str:000000000000012d .LASF29
/var/folders/v8/5w7qrjpd37x60gtz_mwnrxpr0000gn/T//ccVa9wQ9.s:1374   .debug_str:0000000000000136 .LASF30
/var/folders/v8/5w7qrjpd37x60gtz_mwnrxpr0000gn/T//ccVa9wQ9.s:1464   .debug_str:000000000000043f .LASF31
/var/folders/v8/5w7qrjpd37x60gtz_mwnrxpr0000gn/T//ccVa9wQ9.s:1466   .debug_str:000000000000044a .LASF32
/var/folders/v8/5w7qrjpd37x60gtz_mwnrxpr0000gn/T//ccVa9wQ9.s:1470   .debug_str:000000000000045f .LASF33
/var/folders/v8/5w7qrjpd37x60gtz_mwnrxpr0000gn/T//ccVa9wQ9.s:1472   .debug_str:0000000000000469 .LASF34
/var/folders/v8/5w7qrjpd37x60gtz_mwnrxpr0000gn/T//ccVa9wQ9.s:1438   .debug_str:00000000000003aa .LASF35
/var/folders/v8/5w7qrjpd37x60gtz_mwnrxpr0000gn/T//ccVa9wQ9.s:1440   .debug_str:00000000000003b3 .LASF36
/var/folders/v8/5w7qrjpd37x60gtz_mwnrxpr0000gn/T//ccVa9wQ9.s:1358   .debug_str:00000000000000ee .LASF37
/var/folders/v8/5w7qrjpd37x60gtz_mwnrxpr0000gn/T//ccVa9wQ9.s:1360   .debug_str:00000000000000f7 .LASF38
/var/folders/v8/5w7qrjpd37x60gtz_mwnrxpr0000gn/T//ccVa9wQ9.s:1414   .debug_str:0000000000000293 .LASF39
/var/folders/v8/5w7qrjpd37x60gtz_mwnrxpr0000gn/T//ccVa9wQ9.s:1412   .debug_str:000000000000028b .LASF40
/var/folders/v8/5w7qrjpd37x60gtz_mwnrxpr0000gn/T//ccVa9wQ9.s:1450   .debug_str:00000000000003ef .LASF41
/var/folders/v8/5w7qrjpd37x60gtz_mwnrxpr0000gn/T//ccVa9wQ9.s:1336   .debug_str:0000000000000058 .LASF42
/var/folders/v8/5w7qrjpd37x60gtz_mwnrxpr0000gn/T//ccVa9wQ9.s:1452   .debug_str:00000000000003f7 .LASF43
/var/folders/v8/5w7qrjpd37x60gtz_mwnrxpr0000gn/T//ccVa9wQ9.s:1322   .debug_str:000000000000000d .LASF44
/var/folders/v8/5w7qrjpd37x60gtz_mwnrxpr0000gn/T//ccVa9wQ9.s:1324   .debug_str:0000000000000017 .LASF45
GAS LISTING /var/folders/v8/5w7qrjpd37x60gtz_mwnrxpr0000gn/T//ccVa9wQ9.s 			page 8


/var/folders/v8/5w7qrjpd37x60gtz_mwnrxpr0000gn/T//ccVa9wQ9.s:1326   .debug_str:0000000000000021 .LASF46
/var/folders/v8/5w7qrjpd37x60gtz_mwnrxpr0000gn/T//ccVa9wQ9.s:1328   .debug_str:000000000000002b .LASF47
/var/folders/v8/5w7qrjpd37x60gtz_mwnrxpr0000gn/T//ccVa9wQ9.s:1330   .debug_str:0000000000000035 .LASF48
/var/folders/v8/5w7qrjpd37x60gtz_mwnrxpr0000gn/T//ccVa9wQ9.s:1410   .debug_str:0000000000000282 .LASF49
/var/folders/v8/5w7qrjpd37x60gtz_mwnrxpr0000gn/T//ccVa9wQ9.s:1444   .debug_str:00000000000003cd .LASF50
/var/folders/v8/5w7qrjpd37x60gtz_mwnrxpr0000gn/T//ccVa9wQ9.s:1384   .debug_str:0000000000000184 .LASF51
/var/folders/v8/5w7qrjpd37x60gtz_mwnrxpr0000gn/T//ccVa9wQ9.s:1370   .debug_str:0000000000000124 .LASF52
/var/folders/v8/5w7qrjpd37x60gtz_mwnrxpr0000gn/T//ccVa9wQ9.s:1462   .debug_str:0000000000000434 .LASF53
/var/folders/v8/5w7qrjpd37x60gtz_mwnrxpr0000gn/T//ccVa9wQ9.s:1430   .debug_str:0000000000000369 .LASF54
/var/folders/v8/5w7qrjpd37x60gtz_mwnrxpr0000gn/T//ccVa9wQ9.s:1376   .debug_str:000000000000013f .LASF55
/var/folders/v8/5w7qrjpd37x60gtz_mwnrxpr0000gn/T//ccVa9wQ9.s:1442   .debug_str:00000000000003bc .LASF56
/var/folders/v8/5w7qrjpd37x60gtz_mwnrxpr0000gn/T//ccVa9wQ9.s:1378   .debug_str:000000000000014b .LASF57
/var/folders/v8/5w7qrjpd37x60gtz_mwnrxpr0000gn/T//ccVa9wQ9.s:1342   .debug_str:0000000000000082 .LASF58
/var/folders/v8/5w7qrjpd37x60gtz_mwnrxpr0000gn/T//ccVa9wQ9.s:1474   .debug_str:0000000000000473 .LASF59
/var/folders/v8/5w7qrjpd37x60gtz_mwnrxpr0000gn/T//ccVa9wQ9.s:1340   .debug_str:000000000000006b .LASF60
/var/folders/v8/5w7qrjpd37x60gtz_mwnrxpr0000gn/T//ccVa9wQ9.s:1356   .debug_str:00000000000000e2 .LASF61
/var/folders/v8/5w7qrjpd37x60gtz_mwnrxpr0000gn/T//ccVa9wQ9.s:1460   .debug_str:0000000000000427 .LASF62
/var/folders/v8/5w7qrjpd37x60gtz_mwnrxpr0000gn/T//ccVa9wQ9.s:1476   .debug_str:0000000000000485 .LASF63
/var/folders/v8/5w7qrjpd37x60gtz_mwnrxpr0000gn/T//ccVa9wQ9.s:1484   .debug_str:00000000000004c0 .LASF64
/var/folders/v8/5w7qrjpd37x60gtz_mwnrxpr0000gn/T//ccVa9wQ9.s:1352   .debug_str:00000000000000ce .LASF65
/var/folders/v8/5w7qrjpd37x60gtz_mwnrxpr0000gn/T//ccVa9wQ9.s:1456   .debug_str:0000000000000410 .LASF66
/var/folders/v8/5w7qrjpd37x60gtz_mwnrxpr0000gn/T//ccVa9wQ9.s:1436   .debug_str:0000000000000390 .LASF67
/var/folders/v8/5w7qrjpd37x60gtz_mwnrxpr0000gn/T//ccVa9wQ9.s:1402   .debug_str:000000000000022d .LASF68
/var/folders/v8/5w7qrjpd37x60gtz_mwnrxpr0000gn/T//ccVa9wQ9.s:1432   .debug_str:0000000000000373 .LASF69
/var/folders/v8/5w7qrjpd37x60gtz_mwnrxpr0000gn/T//ccVa9wQ9.s:142    .text.SetMotorA:0000000000000000 .LFB3
/var/folders/v8/5w7qrjpd37x60gtz_mwnrxpr0000gn/T//ccVa9wQ9.s:155    .text.SetMotorA:0000000000000016 .LFE3
/var/folders/v8/5w7qrjpd37x60gtz_mwnrxpr0000gn/T//ccVa9wQ9.s:1494   .debug_str:0000000000000506 .LASF87
/var/folders/v8/5w7qrjpd37x60gtz_mwnrxpr0000gn/T//ccVa9wQ9.s:1257   .debug_loc:0000000000000000 .LLST1
/var/folders/v8/5w7qrjpd37x60gtz_mwnrxpr0000gn/T//ccVa9wQ9.s:153    .text.SetMotorA:0000000000000016 .LVL13
/var/folders/v8/5w7qrjpd37x60gtz_mwnrxpr0000gn/T//ccVa9wQ9.s:1480   .debug_str:00000000000004ac .LASF70
/var/folders/v8/5w7qrjpd37x60gtz_mwnrxpr0000gn/T//ccVa9wQ9.s:14     .text.initMotorA:0000000000000000 .LFB2
/var/folders/v8/5w7qrjpd37x60gtz_mwnrxpr0000gn/T//ccVa9wQ9.s:135    .text.initMotorA:00000000000000dc .LFE2
/var/folders/v8/5w7qrjpd37x60gtz_mwnrxpr0000gn/T//ccVa9wQ9.s:1277   .debug_loc:000000000000002f .LLST0
/var/folders/v8/5w7qrjpd37x60gtz_mwnrxpr0000gn/T//ccVa9wQ9.s:1346   .debug_str:00000000000000ae .LASF71
/var/folders/v8/5w7qrjpd37x60gtz_mwnrxpr0000gn/T//ccVa9wQ9.s:1428   .debug_str:0000000000000358 .LASF72
/var/folders/v8/5w7qrjpd37x60gtz_mwnrxpr0000gn/T//ccVa9wQ9.s:32     .text.initMotorA:0000000000000012 .LVL0
/var/folders/v8/5w7qrjpd37x60gtz_mwnrxpr0000gn/T//ccVa9wQ9.s:36     .text.initMotorA:000000000000001e .LVL1
/var/folders/v8/5w7qrjpd37x60gtz_mwnrxpr0000gn/T//ccVa9wQ9.s:44     .text.initMotorA:0000000000000036 .LVL2
/var/folders/v8/5w7qrjpd37x60gtz_mwnrxpr0000gn/T//ccVa9wQ9.s:69     .text.initMotorA:000000000000005c .LVL3
/var/folders/v8/5w7qrjpd37x60gtz_mwnrxpr0000gn/T//ccVa9wQ9.s:91     .text.initMotorA:0000000000000074 .LVL4
/var/folders/v8/5w7qrjpd37x60gtz_mwnrxpr0000gn/T//ccVa9wQ9.s:97     .text.initMotorA:0000000000000086 .LVL5
/var/folders/v8/5w7qrjpd37x60gtz_mwnrxpr0000gn/T//ccVa9wQ9.s:103    .text.initMotorA:0000000000000098 .LVL6
/var/folders/v8/5w7qrjpd37x60gtz_mwnrxpr0000gn/T//ccVa9wQ9.s:109    .text.initMotorA:00000000000000a8 .LVL7
/var/folders/v8/5w7qrjpd37x60gtz_mwnrxpr0000gn/T//ccVa9wQ9.s:115    .text.initMotorA:00000000000000ba .LVL8
/var/folders/v8/5w7qrjpd37x60gtz_mwnrxpr0000gn/T//ccVa9wQ9.s:120    .text.initMotorA:00000000000000c8 .LVL9
/var/folders/v8/5w7qrjpd37x60gtz_mwnrxpr0000gn/T//ccVa9wQ9.s:124    .text.initMotorA:00000000000000d4 .LVL10
/var/folders/v8/5w7qrjpd37x60gtz_mwnrxpr0000gn/T//ccVa9wQ9.s:1382   .debug_str:000000000000015c .LASF73
/var/folders/v8/5w7qrjpd37x60gtz_mwnrxpr0000gn/T//ccVa9wQ9.s:1408   .debug_str:000000000000026a .LASF74
/var/folders/v8/5w7qrjpd37x60gtz_mwnrxpr0000gn/T//ccVa9wQ9.s:1458   .debug_str:000000000000041d .LASF75
/var/folders/v8/5w7qrjpd37x60gtz_mwnrxpr0000gn/T//ccVa9wQ9.s:1366   .debug_str:0000000000000110 .LASF76
/var/folders/v8/5w7qrjpd37x60gtz_mwnrxpr0000gn/T//ccVa9wQ9.s:1478   .debug_str:0000000000000490 .LASF77
/var/folders/v8/5w7qrjpd37x60gtz_mwnrxpr0000gn/T//ccVa9wQ9.s:1344   .debug_str:0000000000000090 .LASF78
/var/folders/v8/5w7qrjpd37x60gtz_mwnrxpr0000gn/T//ccVa9wQ9.s:1490   .debug_str:00000000000004db .LASF79
/var/folders/v8/5w7qrjpd37x60gtz_mwnrxpr0000gn/T//ccVa9wQ9.s:1404   .debug_str:0000000000000239 .LASF80
/var/folders/v8/5w7qrjpd37x60gtz_mwnrxpr0000gn/T//ccVa9wQ9.s:1400   .debug_str:0000000000000211 .LASF81
/var/folders/v8/5w7qrjpd37x60gtz_mwnrxpr0000gn/T//ccVa9wQ9.s:1320   .debug_str:0000000000000000 .LASF82
/var/folders/v8/5w7qrjpd37x60gtz_mwnrxpr0000gn/T//ccVa9wQ9.s:145    .text.SetMotorA:0000000000000000 .LVL11
GAS LISTING /var/folders/v8/5w7qrjpd37x60gtz_mwnrxpr0000gn/T//ccVa9wQ9.s 			page 9


/var/folders/v8/5w7qrjpd37x60gtz_mwnrxpr0000gn/T//ccVa9wQ9.s:149    .text.SetMotorA:0000000000000008 .LVL12
/var/folders/v8/5w7qrjpd37x60gtz_mwnrxpr0000gn/T//ccVa9wQ9.s:21     .text.initMotorA:0000000000000002 .LCFI0
/var/folders/v8/5w7qrjpd37x60gtz_mwnrxpr0000gn/T//ccVa9wQ9.s:131    .text.initMotorA:00000000000000da .LCFI1
/var/folders/v8/5w7qrjpd37x60gtz_mwnrxpr0000gn/T//ccVa9wQ9.s:167    .debug_info:0000000000000000 .Ldebug_info0

UNDEFINED SYMBOLS
rcu_periph_clock_enable
gpio_init
timer_init
timer_channel_output_config
timer_autoreload_value_config
timer_channel_output_mode_config
timer_channel_output_shadow_config
timer_channel_output_pulse_value_config
timer_primary_output_config
timer_enable
