GAS LISTING /var/folders/v8/5w7qrjpd37x60gtz_mwnrxpr0000gn/T//ccyRZC5x.s 			page 1


   1              		.file	"pwm.c"
   2              		.option nopic
   3              		.attribute arch, "rv32i2p0_m2p0_a2p0_c2p0"
   4              		.attribute unaligned_access, 0
   5              		.attribute stack_align, 16
   6              		.text
   7              	.Ltext0:
   8              		.cfi_sections	.debug_frame
   9              		.section	.text.InitPWM,"ax",@progbits
  10              		.align	1
  11              		.globl	InitPWM
  13              	InitPWM:
  14              	.LFB2:
  15              		.file 1 "pwm.c"
   1:pwm.c         **** #include "pwm.h"
   2:pwm.c         **** #include "delay.h"
   3:pwm.c         **** 
   4:pwm.c         **** /****************************PWM-CODE************************************/
   5:pwm.c         **** 
   6:pwm.c         **** void InitPWM(void){
  16              		.loc 1 6 19
  17              		.cfi_startproc
   7:pwm.c         ****     timer_oc_parameter_struct timer_ocinitpara;
  18              		.loc 1 7 5
   8:pwm.c         ****     timer_parameter_struct timer_initpara;
  19              		.loc 1 8 5
   9:pwm.c         ****     rcu_periph_clock_enable(RCU_GPIOA);
  20              		.loc 1 9 5
   6:pwm.c         ****     timer_oc_parameter_struct timer_ocinitpara;
  21              		.loc 1 6 19 is_stmt 0
  22 0000 7971     		addi	sp,sp,-48
  23              	.LCFI0:
  24              		.cfi_def_cfa_offset 48
  25              		.loc 1 9 5
  26 0002 13052060 		li	a0,1538
   6:pwm.c         ****     timer_oc_parameter_struct timer_ocinitpara;
  27              		.loc 1 6 19
  28 0006 06D6     		sw	ra,44(sp)
  29              		.cfi_offset 1, -4
  30              		.loc 1 9 5
  31 0008 97000000 		call	rcu_periph_clock_enable
  31      E7800000 
  32              	.LVL0:
  10:pwm.c         ****     rcu_periph_clock_enable(RCU_AF);
  33              		.loc 1 10 5 is_stmt 1
  34 0010 13050060 		li	a0,1536
  35 0014 97000000 		call	rcu_periph_clock_enable
  35      E7800000 
  36              	.LVL1:
  11:pwm.c         ****     gpio_init(GPIOA, GPIO_MODE_AF_PP, GPIO_OSPEED_50MHZ, GPIO_PIN_0 | GPIO_PIN_1 | GPIO_PIN_2);
  37              		.loc 1 11 5
  38 001c 37150140 		li	a0,1073811456
  39 0020 9D46     		li	a3,7
  40 0022 0D46     		li	a2,3
  41 0024 E145     		li	a1,24
  42 0026 13050580 		addi	a0,a0,-2048
  43 002a 97000000 		call	gpio_init
GAS LISTING /var/folders/v8/5w7qrjpd37x60gtz_mwnrxpr0000gn/T//ccyRZC5x.s 			page 2


  43      E7800000 
  44              	.LVL2:
  12:pwm.c         ****     rcu_periph_clock_enable(RCU_TIMER1);
  45              		.loc 1 12 5
  46 0032 13050070 		li	a0,1792
  47 0036 97000000 		call	rcu_periph_clock_enable
  47      E7800000 
  48              	.LVL3:
  13:pwm.c         **** 
  14:pwm.c         ****     timer_deinit(TIMER1);
  49              		.loc 1 14 5
  50 003e 37050040 		li	a0,1073741824
  51 0042 97000000 		call	timer_deinit
  51      E7800000 
  52              	.LVL4:
  15:pwm.c         ****     timer_struct_para_init(&timer_initpara);
  53              		.loc 1 15 5
  54 004a 0808     		addi	a0,sp,16
  55 004c 97000000 		call	timer_struct_para_init
  55      E7800000 
  56              	.LVL5:
  16:pwm.c         ****     timer_initpara.prescaler         = 107; 
  57              		.loc 1 16 5
  17:pwm.c         ****     timer_initpara.alignedmode       = TIMER_COUNTER_EDGE;
  58              		.loc 1 17 5
  18:pwm.c         ****     timer_initpara.counterdirection  = TIMER_COUNTER_UP;
  59              		.loc 1 18 5
  19:pwm.c         ****     timer_initpara.period            = 0;
  20:pwm.c         ****     timer_initpara.clockdivision     = TIMER_CKDIV_DIV1;
  21:pwm.c         ****     timer_initpara.repetitioncounter = 0;
  22:pwm.c         ****     timer_init(TIMER1, &timer_initpara);
  60              		.loc 1 22 5 is_stmt 0
  61 0054 0C08     		addi	a1,sp,16
  16:pwm.c         ****     timer_initpara.alignedmode       = TIMER_COUNTER_EDGE;
  62              		.loc 1 16 38
  63 0056 9307B006 		li	a5,107
  64              		.loc 1 22 5
  65 005a 37050040 		li	a0,1073741824
  16:pwm.c         ****     timer_initpara.alignedmode       = TIMER_COUNTER_EDGE;
  66              		.loc 1 16 38
  67 005e 3EC8     		sw	a5,16(sp)
  18:pwm.c         ****     timer_initpara.counterdirection  = TIMER_COUNTER_UP;
  68              		.loc 1 18 38
  69 0060 231A0100 		sh	zero,20(sp)
  19:pwm.c         ****     timer_initpara.period            = 0;
  70              		.loc 1 19 5 is_stmt 1
  19:pwm.c         ****     timer_initpara.period            = 0;
  71              		.loc 1 19 38 is_stmt 0
  72 0064 02CC     		sw	zero,24(sp)
  20:pwm.c         ****     timer_initpara.repetitioncounter = 0;
  73              		.loc 1 20 5 is_stmt 1
  20:pwm.c         ****     timer_initpara.repetitioncounter = 0;
  74              		.loc 1 20 38 is_stmt 0
  75 0066 231E0100 		sh	zero,28(sp)
  21:pwm.c         ****     timer_init(TIMER1, &timer_initpara);
  76              		.loc 1 21 5 is_stmt 1
  21:pwm.c         ****     timer_init(TIMER1, &timer_initpara);
GAS LISTING /var/folders/v8/5w7qrjpd37x60gtz_mwnrxpr0000gn/T//ccyRZC5x.s 			page 3


  77              		.loc 1 21 38 is_stmt 0
  78 006a 230F0100 		sb	zero,30(sp)
  79              		.loc 1 22 5 is_stmt 1
  80 006e 97000000 		call	timer_init
  80      E7800000 
  81              	.LVL6:
  23:pwm.c         **** 
  24:pwm.c         ****     timer_channel_output_struct_para_init(&timer_ocinitpara);
  82              		.loc 1 24 5
  83 0076 4800     		addi	a0,sp,4
  84 0078 97000000 		call	timer_channel_output_struct_para_init
  84      E7800000 
  85              	.LVL7:
  25:pwm.c         ****     timer_ocinitpara.outputstate  = TIMER_CCX_ENABLE;
  86              		.loc 1 25 5
  26:pwm.c         ****     timer_ocinitpara.outputnstate = TIMER_CCXN_DISABLE;
  87              		.loc 1 26 5
  27:pwm.c         ****     timer_ocinitpara.ocpolarity   = TIMER_OC_POLARITY_HIGH;
  88              		.loc 1 27 5
  28:pwm.c         ****     timer_ocinitpara.ocnpolarity  = TIMER_OCN_POLARITY_HIGH;
  89              		.loc 1 28 5
  29:pwm.c         ****     timer_ocinitpara.ocidlestate  = TIMER_OC_IDLE_STATE_LOW;
  90              		.loc 1 29 5
  30:pwm.c         ****     timer_ocinitpara.ocnidlestate = TIMER_OCN_IDLE_STATE_LOW;
  91              		.loc 1 30 5
  25:pwm.c         ****     timer_ocinitpara.outputnstate = TIMER_CCXN_DISABLE;
  92              		.loc 1 25 35 is_stmt 0
  93 0080 8547     		li	a5,1
  31:pwm.c         ****     timer_channel_output_config(TIMER1,TIMER_CH_0,&timer_ocinitpara);
  94              		.loc 1 31 5
  95 0082 5000     		addi	a2,sp,4
  96 0084 8145     		li	a1,0
  97 0086 37050040 		li	a0,1073741824
  25:pwm.c         ****     timer_ocinitpara.outputnstate = TIMER_CCXN_DISABLE;
  98              		.loc 1 25 35
  99 008a 3EC2     		sw	a5,4(sp)
  27:pwm.c         ****     timer_ocinitpara.ocnpolarity  = TIMER_OCN_POLARITY_HIGH;
 100              		.loc 1 27 35
 101 008c 02C4     		sw	zero,8(sp)
  29:pwm.c         ****     timer_ocinitpara.ocnidlestate = TIMER_OCN_IDLE_STATE_LOW;
 102              		.loc 1 29 35
 103 008e 02C6     		sw	zero,12(sp)
 104              		.loc 1 31 5 is_stmt 1
 105 0090 97000000 		call	timer_channel_output_config
 105      E7800000 
 106              	.LVL8:
  32:pwm.c         ****     timer_channel_output_config(TIMER1,TIMER_CH_1,&timer_ocinitpara);
 107              		.loc 1 32 5
 108 0098 5000     		addi	a2,sp,4
 109 009a 8545     		li	a1,1
 110 009c 37050040 		li	a0,1073741824
 111 00a0 97000000 		call	timer_channel_output_config
 111      E7800000 
 112              	.LVL9:
  33:pwm.c         ****     timer_channel_output_config(TIMER1,TIMER_CH_2,&timer_ocinitpara);
 113              		.loc 1 33 5
 114 00a8 5000     		addi	a2,sp,4
GAS LISTING /var/folders/v8/5w7qrjpd37x60gtz_mwnrxpr0000gn/T//ccyRZC5x.s 			page 4


 115 00aa 8945     		li	a1,2
 116 00ac 37050040 		li	a0,1073741824
 117 00b0 97000000 		call	timer_channel_output_config
 117      E7800000 
 118              	.LVL10:
  34:pwm.c         **** 
  35:pwm.c         ****     timer_autoreload_value_config(TIMER1, 19999);
 119              		.loc 1 35 5
 120 00b8 9565     		li	a1,20480
 121 00ba 9385F5E1 		addi	a1,a1,-481
 122 00be 37050040 		li	a0,1073741824
 123 00c2 97000000 		call	timer_autoreload_value_config
 123      E7800000 
 124              	.LVL11:
  36:pwm.c         **** 
  37:pwm.c         ****     timer_channel_output_config(TIMER1,TIMER_CH_0,&timer_ocinitpara);
 125              		.loc 1 37 5
 126 00ca 5000     		addi	a2,sp,4
 127 00cc 8145     		li	a1,0
 128 00ce 37050040 		li	a0,1073741824
 129 00d2 97000000 		call	timer_channel_output_config
 129      E7800000 
 130              	.LVL12:
  38:pwm.c         ****     timer_channel_output_config(TIMER1,TIMER_CH_1,&timer_ocinitpara);
 131              		.loc 1 38 5
 132 00da 5000     		addi	a2,sp,4
 133 00dc 8545     		li	a1,1
 134 00de 37050040 		li	a0,1073741824
 135 00e2 97000000 		call	timer_channel_output_config
 135      E7800000 
 136              	.LVL13:
  39:pwm.c         ****     timer_channel_output_config(TIMER1,TIMER_CH_2,&timer_ocinitpara);
 137              		.loc 1 39 5
 138 00ea 5000     		addi	a2,sp,4
 139 00ec 8945     		li	a1,2
 140 00ee 37050040 		li	a0,1073741824
 141 00f2 97000000 		call	timer_channel_output_config
 141      E7800000 
 142              	.LVL14:
  40:pwm.c         **** 
  41:pwm.c         ****     
  42:pwm.c         ****     timer_channel_output_pulse_value_config(TIMER1,TIMER_CH_0,0);
 143              		.loc 1 42 5
 144 00fa 0146     		li	a2,0
 145 00fc 8145     		li	a1,0
 146 00fe 37050040 		li	a0,1073741824
 147 0102 97000000 		call	timer_channel_output_pulse_value_config
 147      E7800000 
 148              	.LVL15:
  43:pwm.c         ****     timer_channel_output_mode_config(TIMER1,TIMER_CH_0,TIMER_OC_MODE_PWM0);
 149              		.loc 1 43 5
 150 010a 13060006 		li	a2,96
 151 010e 8145     		li	a1,0
 152 0110 37050040 		li	a0,1073741824
 153 0114 97000000 		call	timer_channel_output_mode_config
 153      E7800000 
 154              	.LVL16:
GAS LISTING /var/folders/v8/5w7qrjpd37x60gtz_mwnrxpr0000gn/T//ccyRZC5x.s 			page 5


  44:pwm.c         ****     timer_channel_output_shadow_config(TIMER1,TIMER_CH_0,TIMER_OC_SHADOW_DISABLE);
 155              		.loc 1 44 5
 156 011c 0146     		li	a2,0
 157 011e 8145     		li	a1,0
 158 0120 37050040 		li	a0,1073741824
 159 0124 97000000 		call	timer_channel_output_shadow_config
 159      E7800000 
 160              	.LVL17:
  45:pwm.c         **** 
  46:pwm.c         ****     timer_channel_output_pulse_value_config(TIMER1,TIMER_CH_1,0);
 161              		.loc 1 46 5
 162 012c 0146     		li	a2,0
 163 012e 8545     		li	a1,1
 164 0130 37050040 		li	a0,1073741824
 165 0134 97000000 		call	timer_channel_output_pulse_value_config
 165      E7800000 
 166              	.LVL18:
  47:pwm.c         ****     timer_channel_output_mode_config(TIMER1,TIMER_CH_1,TIMER_OC_MODE_PWM0);
 167              		.loc 1 47 5
 168 013c 13060006 		li	a2,96
 169 0140 8545     		li	a1,1
 170 0142 37050040 		li	a0,1073741824
 171 0146 97000000 		call	timer_channel_output_mode_config
 171      E7800000 
 172              	.LVL19:
  48:pwm.c         ****     timer_channel_output_shadow_config(TIMER1,TIMER_CH_1,TIMER_OC_SHADOW_DISABLE);
 173              		.loc 1 48 5
 174 014e 0146     		li	a2,0
 175 0150 8545     		li	a1,1
 176 0152 37050040 		li	a0,1073741824
 177 0156 97000000 		call	timer_channel_output_shadow_config
 177      E7800000 
 178              	.LVL20:
  49:pwm.c         **** 
  50:pwm.c         ****     timer_channel_output_pulse_value_config(TIMER1,TIMER_CH_2,1000);
 179              		.loc 1 50 5
 180 015e 1306803E 		li	a2,1000
 181 0162 8945     		li	a1,2
 182 0164 37050040 		li	a0,1073741824
 183 0168 97000000 		call	timer_channel_output_pulse_value_config
 183      E7800000 
 184              	.LVL21:
  51:pwm.c         ****     timer_channel_output_mode_config(TIMER1,TIMER_CH_2,TIMER_OC_MODE_PWM0);
 185              		.loc 1 51 5
 186 0170 13060006 		li	a2,96
 187 0174 8945     		li	a1,2
 188 0176 37050040 		li	a0,1073741824
 189 017a 97000000 		call	timer_channel_output_mode_config
 189      E7800000 
 190              	.LVL22:
  52:pwm.c         ****     timer_channel_output_shadow_config(TIMER1,TIMER_CH_2,TIMER_OC_SHADOW_DISABLE);
 191              		.loc 1 52 5
 192 0182 0146     		li	a2,0
 193 0184 8945     		li	a1,2
 194 0186 37050040 		li	a0,1073741824
 195 018a 97000000 		call	timer_channel_output_shadow_config
 195      E7800000 
GAS LISTING /var/folders/v8/5w7qrjpd37x60gtz_mwnrxpr0000gn/T//ccyRZC5x.s 			page 6


 196              	.LVL23:
  53:pwm.c         **** 
  54:pwm.c         ****     timer_auto_reload_shadow_enable(TIMER1);
 197              		.loc 1 54 5
 198 0192 37050040 		li	a0,1073741824
 199 0196 97000000 		call	timer_auto_reload_shadow_enable
 199      E7800000 
 200              	.LVL24:
  55:pwm.c         ****     timer_enable(TIMER1);
 201              		.loc 1 55 5
 202 019e 37050040 		li	a0,1073741824
 203 01a2 97000000 		call	timer_enable
 203      E7800000 
 204              	.LVL25:
  56:pwm.c         **** }
 205              		.loc 1 56 1 is_stmt 0
 206 01aa B250     		lw	ra,44(sp)
 207              		.cfi_restore 1
 208 01ac 4561     		addi	sp,sp,48
 209              	.LCFI1:
 210              		.cfi_def_cfa_offset 0
 211 01ae 8280     		jr	ra
 212              		.cfi_endproc
 213              	.LFE2:
 215              		.section	.text.SetMotorA,"ax",@progbits
 216              		.align	1
 217              		.globl	SetMotorA
 219              	SetMotorA:
 220              	.LFB3:
  57:pwm.c         **** 
  58:pwm.c         **** void SetMotorA(int value){
 221              		.loc 1 58 26 is_stmt 1
 222              		.cfi_startproc
 223              	.LVL26:
  59:pwm.c         ****     timer_channel_output_pulse_value_config(TIMER1,TIMER_CH_0,value);
 224              		.loc 1 59 5
 225 0000 2A86     		mv	a2,a0
 226 0002 8145     		li	a1,0
 227 0004 37050040 		li	a0,1073741824
 228              	.LVL27:
 229 0008 17030000 		tail	timer_channel_output_pulse_value_config
 229      67000300 
 230              	.LVL28:
 231              		.cfi_endproc
 232              	.LFE3:
 234              		.section	.text.SetMotorB,"ax",@progbits
 235              		.align	1
 236              		.globl	SetMotorB
 238              	SetMotorB:
 239              	.LFB4:
  60:pwm.c         **** }
  61:pwm.c         **** 
  62:pwm.c         **** void SetMotorB(int value){
 240              		.loc 1 62 26
 241              		.cfi_startproc
 242              	.LVL29:
  63:pwm.c         ****     timer_channel_output_pulse_value_config(TIMER1,TIMER_CH_1,value);
GAS LISTING /var/folders/v8/5w7qrjpd37x60gtz_mwnrxpr0000gn/T//ccyRZC5x.s 			page 7


 243              		.loc 1 63 5
 244 0000 2A86     		mv	a2,a0
 245 0002 8545     		li	a1,1
 246 0004 37050040 		li	a0,1073741824
 247              	.LVL30:
 248 0008 17030000 		tail	timer_channel_output_pulse_value_config
 248      67000300 
 249              	.LVL31:
 250              		.cfi_endproc
 251              	.LFE4:
 253              		.section	.text.motorStartupSeq,"ax",@progbits
 254              		.align	1
 255              		.globl	motorStartupSeq
 257              	motorStartupSeq:
 258              	.LFB5:
  64:pwm.c         **** }
  65:pwm.c         **** 
  66:pwm.c         **** void motorStartupSeq(int endThrottle){
 259              		.loc 1 66 38
 260              		.cfi_startproc
 261              	.LVL32:
  67:pwm.c         ****     SetMotorA(2000);
 262              		.loc 1 67 5
 263              	.LBB14:
 264              	.LBB15:
  59:pwm.c         **** }
 265              		.loc 1 59 5
 266              	.LBE15:
 267              	.LBE14:
  66:pwm.c         ****     SetMotorA(2000);
 268              		.loc 1 66 38 is_stmt 0
 269 0000 4111     		addi	sp,sp,-16
 270              	.LCFI2:
 271              		.cfi_def_cfa_offset 16
 272 0002 22C4     		sw	s0,8(sp)
 273              	.LBB19:
 274              	.LBB16:
  59:pwm.c         **** }
 275              		.loc 1 59 5
 276 0004 1306007D 		li	a2,2000
 277              		.cfi_offset 8, -8
 278              	.LBE16:
 279              	.LBE19:
  66:pwm.c         ****     SetMotorA(2000);
 280              		.loc 1 66 38
 281 0008 2A84     		mv	s0,a0
 282              	.LBB20:
 283              	.LBB17:
  59:pwm.c         **** }
 284              		.loc 1 59 5
 285 000a 8145     		li	a1,0
 286 000c 37050040 		li	a0,1073741824
 287              	.LVL33:
 288              	.LBE17:
 289              	.LBE20:
  66:pwm.c         ****     SetMotorA(2000);
 290              		.loc 1 66 38
GAS LISTING /var/folders/v8/5w7qrjpd37x60gtz_mwnrxpr0000gn/T//ccyRZC5x.s 			page 8


 291 0010 06C6     		sw	ra,12(sp)
 292 0012 26C2     		sw	s1,4(sp)
 293              		.cfi_offset 1, -4
 294              		.cfi_offset 9, -12
 295              	.LBB21:
 296              	.LBB18:
  59:pwm.c         **** }
 297              		.loc 1 59 5
 298 0014 97000000 		call	timer_channel_output_pulse_value_config
 298      E7800000 
 299              	.LVL34:
 300              	.LBE18:
 301              	.LBE21:
  68:pwm.c         ****     SetMotorB(2000);
 302              		.loc 1 68 5 is_stmt 1
 303              	.LBB22:
 304              	.LBB23:
  63:pwm.c         **** }
 305              		.loc 1 63 5
 306 001c 1306007D 		li	a2,2000
 307 0020 8545     		li	a1,1
 308 0022 37050040 		li	a0,1073741824
 309 0026 97000000 		call	timer_channel_output_pulse_value_config
 309      E7800000 
 310              	.LVL35:
 311              	.LBE23:
 312              	.LBE22:
  69:pwm.c         ****     delay_1ms(3000);
 313              		.loc 1 69 5
 314 002e 8564     		li	s1,4096
 315 0030 138584BB 		addi	a0,s1,-1096
 316 0034 97000000 		call	delay_1ms
 316      E7800000 
 317              	.LVL36:
  70:pwm.c         ****     SetMotorA(1000);
 318              		.loc 1 70 5
 319              	.LBB24:
 320              	.LBB25:
  59:pwm.c         **** }
 321              		.loc 1 59 5
 322 003c 1306803E 		li	a2,1000
 323 0040 8145     		li	a1,0
 324 0042 37050040 		li	a0,1073741824
 325 0046 97000000 		call	timer_channel_output_pulse_value_config
 325      E7800000 
 326              	.LVL37:
 327              	.LBE25:
 328              	.LBE24:
  71:pwm.c         ****     SetMotorB(1000);
 329              		.loc 1 71 5
 330              	.LBB26:
 331              	.LBB27:
  63:pwm.c         **** }
 332              		.loc 1 63 5
 333 004e 1306803E 		li	a2,1000
 334 0052 8545     		li	a1,1
 335 0054 37050040 		li	a0,1073741824
GAS LISTING /var/folders/v8/5w7qrjpd37x60gtz_mwnrxpr0000gn/T//ccyRZC5x.s 			page 9


 336 0058 97000000 		call	timer_channel_output_pulse_value_config
 336      E7800000 
 337              	.LVL38:
 338              	.LBE27:
 339              	.LBE26:
  72:pwm.c         ****     delay_1ms(3000);
 340              		.loc 1 72 5
 341 0060 138584BB 		addi	a0,s1,-1096
 342 0064 97000000 		call	delay_1ms
 342      E7800000 
 343              	.LVL39:
  73:pwm.c         ****     SetMotorA(1000 + endThrottle);
 344              		.loc 1 73 5
 345              	.LBB28:
 346              	.LBB29:
  59:pwm.c         **** }
 347              		.loc 1 59 5
 348              	.LBE29:
 349              	.LBE28:
 350              		.loc 1 73 5 is_stmt 0
 351 006c 1304843E 		addi	s0,s0,1000
 352              	.LVL40:
 353              	.LBB31:
 354              	.LBB30:
  59:pwm.c         **** }
 355              		.loc 1 59 5
 356 0070 2286     		mv	a2,s0
 357 0072 8145     		li	a1,0
 358 0074 37050040 		li	a0,1073741824
 359 0078 97000000 		call	timer_channel_output_pulse_value_config
 359      E7800000 
 360              	.LVL41:
 361              	.LBE30:
 362              	.LBE31:
  74:pwm.c         ****     SetMotorB(1000 + endThrottle);
 363              		.loc 1 74 5 is_stmt 1
 364              	.LBB32:
 365              	.LBB33:
  63:pwm.c         **** }
 366              		.loc 1 63 5
 367 0080 2286     		mv	a2,s0
 368              	.LBE33:
 369              	.LBE32:
  75:pwm.c         **** }
 370              		.loc 1 75 1 is_stmt 0
 371 0082 2244     		lw	s0,8(sp)
 372              		.cfi_restore 8
 373              	.LVL42:
 374 0084 B240     		lw	ra,12(sp)
 375              		.cfi_restore 1
 376 0086 9244     		lw	s1,4(sp)
 377              		.cfi_restore 9
 378              	.LBB37:
 379              	.LBB34:
  63:pwm.c         **** }
 380              		.loc 1 63 5
 381 0088 8545     		li	a1,1
GAS LISTING /var/folders/v8/5w7qrjpd37x60gtz_mwnrxpr0000gn/T//ccyRZC5x.s 			page 10


 382              	.LBE34:
 383              	.LBE37:
 384              		.loc 1 75 1
 385              	.LBB38:
 386              	.LBB35:
  63:pwm.c         **** }
 387              		.loc 1 63 5
 388 008a 37050040 		li	a0,1073741824
 389              	.LBE35:
 390              	.LBE38:
 391              		.loc 1 75 1
 392 008e 4101     		addi	sp,sp,16
 393              	.LCFI3:
 394              		.cfi_def_cfa_offset 0
 395              	.LBB39:
 396              	.LBB36:
  63:pwm.c         **** }
 397              		.loc 1 63 5
 398 0090 17030000 		tail	timer_channel_output_pulse_value_config
 398      67000300 
 399              	.LVL43:
 400              	.LBE36:
 401              	.LBE39:
 402              		.cfi_endproc
 403              	.LFE5:
 405              		.section	.text.initServoA,"ax",@progbits
 406              		.align	1
 407              		.globl	initServoA
 409              	initServoA:
 410              	.LFB6:
  76:pwm.c         **** 
  77:pwm.c         **** 
  78:pwm.c         **** /****************************SERVO-CODE************************************/
  79:pwm.c         **** 
  80:pwm.c         **** void initServoA(void){
 411              		.loc 1 80 22 is_stmt 1
 412              		.cfi_startproc
  81:pwm.c         ****     rcu_periph_clock_enable(RCU_GPIOA);
 413              		.loc 1 81 5
  80:pwm.c         ****     rcu_periph_clock_enable(RCU_GPIOA);
 414              		.loc 1 80 22 is_stmt 0
 415 0000 7971     		addi	sp,sp,-48
 416              	.LCFI4:
 417              		.cfi_def_cfa_offset 48
 418              		.loc 1 81 5
 419 0002 13052060 		li	a0,1538
  80:pwm.c         ****     rcu_periph_clock_enable(RCU_GPIOA);
 420              		.loc 1 80 22
 421 0006 06D6     		sw	ra,44(sp)
 422 0008 22D4     		sw	s0,40(sp)
 423              		.cfi_offset 1, -4
 424              		.cfi_offset 8, -8
 425              		.loc 1 81 5
 426 000a 97000000 		call	rcu_periph_clock_enable
 426      E7800000 
 427              	.LVL44:
  82:pwm.c         ****     rcu_periph_clock_enable(RCU_TIMER0);
GAS LISTING /var/folders/v8/5w7qrjpd37x60gtz_mwnrxpr0000gn/T//ccyRZC5x.s 			page 11


 428              		.loc 1 82 5 is_stmt 1
 429 0012 1305B060 		li	a0,1547
 430 0016 97000000 		call	rcu_periph_clock_enable
 430      E7800000 
 431              	.LVL45:
  83:pwm.c         **** 
  84:pwm.c         ****     gpio_init(GPIOA, GPIO_MODE_AF_PP, GPIO_OSPEED_50MHZ, GPIO_PIN_8);
 432              		.loc 1 84 5
 433 001e 37150140 		li	a0,1073811456
 434 0022 93060010 		li	a3,256
 435 0026 0D46     		li	a2,3
 436 0028 E145     		li	a1,24
 437 002a 13050580 		addi	a0,a0,-2048
 438 002e 97000000 		call	gpio_init
 438      E7800000 
 439              	.LVL46:
  85:pwm.c         **** 
  86:pwm.c         ****     timer_parameter_struct timer_initpara;
 440              		.loc 1 86 5
  87:pwm.c         ****     timer_initpara.prescaler         = 107;                         //SCALE CLOCK TO 1MHz
 441              		.loc 1 87 5
  88:pwm.c         ****     timer_initpara.alignedmode       = TIMER_COUNTER_EDGE;
 442              		.loc 1 88 5
  89:pwm.c         ****     timer_initpara.counterdirection  = TIMER_COUNTER_UP;
 443              		.loc 1 89 5
  90:pwm.c         ****     timer_initpara.period            = 0;
  91:pwm.c         ****     timer_initpara.clockdivision     = TIMER_CKDIV_DIV1;
  92:pwm.c         ****     timer_initpara.repetitioncounter = 0;
  93:pwm.c         ****     timer_init(TIMER0, &timer_initpara);
 444              		.loc 1 93 5 is_stmt 0
 445 0036 37340140 		li	s0,1073819648
 446 003a 0C08     		addi	a1,sp,16
 447 003c 130504C0 		addi	a0,s0,-1024
  87:pwm.c         ****     timer_initpara.alignedmode       = TIMER_COUNTER_EDGE;
 448              		.loc 1 87 38
 449 0040 9307B006 		li	a5,107
 450 0044 3EC8     		sw	a5,16(sp)
  89:pwm.c         ****     timer_initpara.counterdirection  = TIMER_COUNTER_UP;
 451              		.loc 1 89 38
 452 0046 231A0100 		sh	zero,20(sp)
  90:pwm.c         ****     timer_initpara.period            = 0;
 453              		.loc 1 90 5 is_stmt 1
  90:pwm.c         ****     timer_initpara.period            = 0;
 454              		.loc 1 90 38 is_stmt 0
 455 004a 02CC     		sw	zero,24(sp)
  91:pwm.c         ****     timer_initpara.repetitioncounter = 0;
 456              		.loc 1 91 5 is_stmt 1
  91:pwm.c         ****     timer_initpara.repetitioncounter = 0;
 457              		.loc 1 91 38 is_stmt 0
 458 004c 231E0100 		sh	zero,28(sp)
  92:pwm.c         ****     timer_init(TIMER0, &timer_initpara);
 459              		.loc 1 92 5 is_stmt 1
  92:pwm.c         ****     timer_init(TIMER0, &timer_initpara);
 460              		.loc 1 92 38 is_stmt 0
 461 0050 230F0100 		sb	zero,30(sp)
 462              		.loc 1 93 5 is_stmt 1
 463 0054 97000000 		call	timer_init
GAS LISTING /var/folders/v8/5w7qrjpd37x60gtz_mwnrxpr0000gn/T//ccyRZC5x.s 			page 12


 463      E7800000 
 464              	.LVL47:
  94:pwm.c         **** 
  95:pwm.c         ****     timer_oc_parameter_struct timer_ocinitpara;
 465              		.loc 1 95 5
  96:pwm.c         ****     timer_ocinitpara.outputstate    = TIMER_CCX_ENABLE;
 466              		.loc 1 96 5
  97:pwm.c         ****     timer_ocinitpara.outputnstate   = TIMER_CCXN_DISABLE;
 467              		.loc 1 97 5
  98:pwm.c         ****     timer_ocinitpara.ocpolarity     = TIMER_OC_POLARITY_HIGH;
 468              		.loc 1 98 5
  99:pwm.c         ****     timer_ocinitpara.ocnpolarity    = TIMER_OCN_POLARITY_HIGH;
 469              		.loc 1 99 5
 100:pwm.c         ****     timer_ocinitpara.ocidlestate    = TIMER_OC_IDLE_STATE_LOW;
 470              		.loc 1 100 5
 101:pwm.c         ****     timer_ocinitpara.ocnidlestate   = TIMER_OC_IDLE_STATE_LOW;
 471              		.loc 1 101 5
  96:pwm.c         ****     timer_ocinitpara.outputnstate   = TIMER_CCXN_DISABLE;
 472              		.loc 1 96 37 is_stmt 0
 473 005c 8547     		li	a5,1
 102:pwm.c         ****     timer_channel_output_config(TIMER0, TIMER_CH_0, &timer_ocinitpara);
 474              		.loc 1 102 5
 475 005e 5000     		addi	a2,sp,4
 476 0060 130504C0 		addi	a0,s0,-1024
 477 0064 8145     		li	a1,0
  96:pwm.c         ****     timer_ocinitpara.outputnstate   = TIMER_CCXN_DISABLE;
 478              		.loc 1 96 37
 479 0066 3EC2     		sw	a5,4(sp)
  98:pwm.c         ****     timer_ocinitpara.ocnpolarity    = TIMER_OCN_POLARITY_HIGH;
 480              		.loc 1 98 37
 481 0068 02C4     		sw	zero,8(sp)
 100:pwm.c         ****     timer_ocinitpara.ocnidlestate   = TIMER_OC_IDLE_STATE_LOW;
 482              		.loc 1 100 37
 483 006a 02C6     		sw	zero,12(sp)
 484              		.loc 1 102 5 is_stmt 1
 485 006c 97000000 		call	timer_channel_output_config
 485      E7800000 
 486              	.LVL48:
 103:pwm.c         **** 
 104:pwm.c         ****     timer_autoreload_value_config(TIMER0, 19999);                   //PERIOD IS 50MS LONG
 487              		.loc 1 104 5
 488 0074 9565     		li	a1,20480
 489 0076 130504C0 		addi	a0,s0,-1024
 490 007a 9385F5E1 		addi	a1,a1,-481
 491 007e 97000000 		call	timer_autoreload_value_config
 491      E7800000 
 492              	.LVL49:
 105:pwm.c         **** 
 106:pwm.c         ****     timer_channel_output_mode_config(TIMER0, TIMER_CH_0, TIMER_OC_MODE_PWM0);
 493              		.loc 1 106 5
 494 0086 130504C0 		addi	a0,s0,-1024
 495 008a 13060006 		li	a2,96
 496 008e 8145     		li	a1,0
 497 0090 97000000 		call	timer_channel_output_mode_config
 497      E7800000 
 498              	.LVL50:
 107:pwm.c         ****     timer_channel_output_shadow_config(TIMER0, TIMER_CH_0, TIMER_OC_SHADOW_DISABLE);
GAS LISTING /var/folders/v8/5w7qrjpd37x60gtz_mwnrxpr0000gn/T//ccyRZC5x.s 			page 13


 499              		.loc 1 107 5
 500 0098 130504C0 		addi	a0,s0,-1024
 501 009c 0146     		li	a2,0
 502 009e 8145     		li	a1,0
 503 00a0 97000000 		call	timer_channel_output_shadow_config
 503      E7800000 
 504              	.LVL51:
 108:pwm.c         ****     timer_channel_output_pulse_value_config(TIMER0, TIMER_CH_0, 1000);
 505              		.loc 1 108 5
 506 00a8 1306803E 		li	a2,1000
 507 00ac 130504C0 		addi	a0,s0,-1024
 508 00b0 8145     		li	a1,0
 509 00b2 97000000 		call	timer_channel_output_pulse_value_config
 509      E7800000 
 510              	.LVL52:
 109:pwm.c         **** 
 110:pwm.c         ****     timer_primary_output_config(TIMER0, ENABLE);
 511              		.loc 1 110 5
 512 00ba 130504C0 		addi	a0,s0,-1024
 513 00be 8545     		li	a1,1
 514 00c0 97000000 		call	timer_primary_output_config
 514      E7800000 
 515              	.LVL53:
 111:pwm.c         ****     timer_enable(TIMER0);
 516              		.loc 1 111 5
 517 00c8 130504C0 		addi	a0,s0,-1024
 518 00cc 97000000 		call	timer_enable
 518      E7800000 
 519              	.LVL54:
 112:pwm.c         **** }
 520              		.loc 1 112 1 is_stmt 0
 521 00d4 B250     		lw	ra,44(sp)
 522              		.cfi_restore 1
 523 00d6 2254     		lw	s0,40(sp)
 524              		.cfi_restore 8
 525 00d8 4561     		addi	sp,sp,48
 526              	.LCFI5:
 527              		.cfi_def_cfa_offset 0
 528 00da 8280     		jr	ra
 529              		.cfi_endproc
 530              	.LFE6:
 532              		.section	.text.MoveServoA,"ax",@progbits
 533              		.align	1
 534              		.globl	MoveServoA
 536              	MoveServoA:
 537              	.LFB7:
 113:pwm.c         **** 
 114:pwm.c         **** void MoveServoA(int degree){ 
 538              		.loc 1 114 28 is_stmt 1
 539              		.cfi_startproc
 540              	.LVL55:
 115:pwm.c         ****     int move = ((10*degree)>>8)+1450;
 541              		.loc 1 115 5
 116:pwm.c         ****     if(move<550){
 542              		.loc 1 116 5
 115:pwm.c         ****     int move = ((10*degree)>>8)+1450;
 543              		.loc 1 115 20 is_stmt 0
GAS LISTING /var/folders/v8/5w7qrjpd37x60gtz_mwnrxpr0000gn/T//ccyRZC5x.s 			page 14


 544 0000 13162500 		slli	a2,a0,2
 545 0004 2A96     		add	a2,a2,a0
 546 0006 0606     		slli	a2,a2,1
 115:pwm.c         ****     int move = ((10*degree)>>8)+1450;
 547              		.loc 1 115 28
 548 0008 2186     		srai	a2,a2,8
 549 000a 8567     		li	a5,4096
 115:pwm.c         ****     int move = ((10*degree)>>8)+1450;
 550              		.loc 1 115 9
 551 000c 1306A65A 		addi	a2,a2,1450
 552 0010 9387E792 		addi	a5,a5,-1746
 553 0014 63D3C700 		ble	a2,a5,.L11
 554 0018 3E86     		mv	a2,a5
 555              	.L11:
 556              	.LVL56:
 117:pwm.c         ****         move=550;
 118:pwm.c         ****     }else if(move>2350){
 119:pwm.c         ****         move=2350;
 120:pwm.c         ****     }
 121:pwm.c         ****     timer_channel_output_pulse_value_config(TIMER0, TIMER_CH_0, move);
 557              		.loc 1 121 5 is_stmt 1
 558 001a 93076022 		li	a5,550
 559 001e 6354F600 		bge	a2,a5,.L12
 560 0022 13066022 		li	a2,550
 561              	.LVL57:
 562              	.L12:
 563 0026 37350140 		li	a0,1073819648
 564              	.LVL58:
 565 002a 8145     		li	a1,0
 566 002c 130505C0 		addi	a0,a0,-1024
 567 0030 17030000 		tail	timer_channel_output_pulse_value_config
 567      67000300 
 568              	.LVL59:
 569              		.cfi_endproc
 570              	.LFE7:
 572              		.section	.text.MoveServoB,"ax",@progbits
 573              		.align	1
 574              		.globl	MoveServoB
 576              	MoveServoB:
 577              	.LFB8:
 122:pwm.c         **** }
 123:pwm.c         **** 
 124:pwm.c         **** void MoveServoB(int degree){
 578              		.loc 1 124 28
 579              		.cfi_startproc
 580              	.LVL60:
 125:pwm.c         ****     int move = ((10*degree)>>8)+1450;
 581              		.loc 1 125 5
 126:pwm.c         ****     if(move<550){
 582              		.loc 1 126 5
 125:pwm.c         ****     int move = ((10*degree)>>8)+1450;
 583              		.loc 1 125 20 is_stmt 0
 584 0000 13162500 		slli	a2,a0,2
 585 0004 2A96     		add	a2,a2,a0
 586 0006 0606     		slli	a2,a2,1
 125:pwm.c         ****     int move = ((10*degree)>>8)+1450;
 587              		.loc 1 125 28
GAS LISTING /var/folders/v8/5w7qrjpd37x60gtz_mwnrxpr0000gn/T//ccyRZC5x.s 			page 15


 588 0008 2186     		srai	a2,a2,8
 589 000a 8567     		li	a5,4096
 125:pwm.c         ****     int move = ((10*degree)>>8)+1450;
 590              		.loc 1 125 9
 591 000c 1306A65A 		addi	a2,a2,1450
 592 0010 9387E792 		addi	a5,a5,-1746
 593 0014 63D3C700 		ble	a2,a5,.L14
 594 0018 3E86     		mv	a2,a5
 595              	.L14:
 596              	.LVL61:
 127:pwm.c         ****         move=550;
 128:pwm.c         ****     }else if(move>2350){
 129:pwm.c         ****         move=2350;
 130:pwm.c         ****     }
 131:pwm.c         ****     timer_channel_output_pulse_value_config(TIMER1,TIMER_CH_2,move);
 597              		.loc 1 131 5 is_stmt 1
 598 001a 93076022 		li	a5,550
 599 001e 6354F600 		bge	a2,a5,.L15
 600 0022 13066022 		li	a2,550
 601              	.LVL62:
 602              	.L15:
 603 0026 8945     		li	a1,2
 604 0028 37050040 		li	a0,1073741824
 605              	.LVL63:
 606 002c 17030000 		tail	timer_channel_output_pulse_value_config
 606      67000300 
 607              	.LVL64:
 608              		.cfi_endproc
 609              	.LFE8:
 611              		.text
 612              	.Letext0:
 613              		.file 2 "/Users/gulda/Desktop/toolchain-gd32v-osx/compiler/riscv64-unknown-elf/include/machine/_de
 614              		.file 3 "/Users/gulda/Desktop/toolchain-gd32v-osx/compiler/riscv64-unknown-elf/include/sys/_stdint
 615              		.file 4 "../../firmware/GD32VF103_standard_peripheral/gd32vf103.h"
 616              		.file 5 "../../firmware/GD32VF103_standard_peripheral/Include/gd32vf103_rcu.h"
 617              		.file 6 "../../firmware/GD32VF103_standard_peripheral/Include/gd32vf103_timer.h"
 618              		.file 7 "../../firmware/GD32VF103_standard_peripheral/Include/gd32vf103_gpio.h"
 619              		.file 8 "lib/delay/include/delay.h"
 620              		.file 9 "../../firmware/GD32VF103_standard_peripheral/system_gd32vf103.h"
GAS LISTING /var/folders/v8/5w7qrjpd37x60gtz_mwnrxpr0000gn/T//ccyRZC5x.s 			page 16

