GAS LISTING /var/folders/v8/5w7qrjpd37x60gtz_mwnrxpr0000gn/T//cc04p8iv.s 			page 1


   1              		.file	"servo.c"
   2              		.option nopic
   3              		.attribute arch, "rv32i2p0_m2p0_a2p0_c2p0"
   4              		.attribute unaligned_access, 0
   5              		.attribute stack_align, 16
   6              		.text
   7              	.Ltext0:
   8              		.cfi_sections	.debug_frame
   9              		.section	.text.initServoA,"ax",@progbits
  10              		.align	1
  11              		.globl	initServoA
  13              	initServoA:
  14              	.LFB2:
  15              		.file 1 "servo.c"
   1:servo.c       **** #include "servo.h"
   2:servo.c       **** 
   3:servo.c       **** void initServoA(void){
  16              		.loc 1 3 22
  17              		.cfi_startproc
   4:servo.c       ****     rcu_periph_clock_enable(RCU_GPIOA);
  18              		.loc 1 4 5
   3:servo.c       ****     rcu_periph_clock_enable(RCU_GPIOA);
  19              		.loc 1 3 22 is_stmt 0
  20 0000 7971     		addi	sp,sp,-48
  21              	.LCFI0:
  22              		.cfi_def_cfa_offset 48
  23              		.loc 1 4 5
  24 0002 13052060 		li	a0,1538
   3:servo.c       ****     rcu_periph_clock_enable(RCU_GPIOA);
  25              		.loc 1 3 22
  26 0006 06D6     		sw	ra,44(sp)
  27 0008 22D4     		sw	s0,40(sp)
  28              		.cfi_offset 1, -4
  29              		.cfi_offset 8, -8
  30              		.loc 1 4 5
  31 000a 97000000 		call	rcu_periph_clock_enable
  31      E7800000 
  32              	.LVL0:
   5:servo.c       ****     rcu_periph_clock_enable(RCU_TIMER0);
  33              		.loc 1 5 5 is_stmt 1
  34 0012 1305B060 		li	a0,1547
  35 0016 97000000 		call	rcu_periph_clock_enable
  35      E7800000 
  36              	.LVL1:
   6:servo.c       **** 
   7:servo.c       ****     gpio_init(GPIOA, GPIO_MODE_AF_PP, GPIO_OSPEED_50MHZ, GPIO_PIN_8);
  37              		.loc 1 7 5
  38 001e 37150140 		li	a0,1073811456
  39 0022 93060010 		li	a3,256
  40 0026 0D46     		li	a2,3
  41 0028 E145     		li	a1,24
  42 002a 13050580 		addi	a0,a0,-2048
  43 002e 97000000 		call	gpio_init
  43      E7800000 
  44              	.LVL2:
   8:servo.c       **** 
   9:servo.c       ****     timer_parameter_struct timer_initpara;
GAS LISTING /var/folders/v8/5w7qrjpd37x60gtz_mwnrxpr0000gn/T//cc04p8iv.s 			page 2


  45              		.loc 1 9 5
  10:servo.c       ****     timer_initpara.prescaler         = 107;
  46              		.loc 1 10 5
  11:servo.c       ****     timer_initpara.alignedmode       = TIMER_COUNTER_EDGE;
  47              		.loc 1 11 5
  12:servo.c       ****     timer_initpara.counterdirection  = TIMER_COUNTER_UP;
  48              		.loc 1 12 5
  13:servo.c       ****     timer_initpara.period            = 0;
  14:servo.c       ****     timer_initpara.clockdivision     = TIMER_CKDIV_DIV1;
  15:servo.c       ****     timer_initpara.repetitioncounter = 0;
  16:servo.c       ****     timer_init(TIMER0, &timer_initpara);
  49              		.loc 1 16 5 is_stmt 0
  50 0036 37340140 		li	s0,1073819648
  51 003a 0C08     		addi	a1,sp,16
  52 003c 130504C0 		addi	a0,s0,-1024
  10:servo.c       ****     timer_initpara.alignedmode       = TIMER_COUNTER_EDGE;
  53              		.loc 1 10 38
  54 0040 9307B006 		li	a5,107
  55 0044 3EC8     		sw	a5,16(sp)
  12:servo.c       ****     timer_initpara.counterdirection  = TIMER_COUNTER_UP;
  56              		.loc 1 12 38
  57 0046 231A0100 		sh	zero,20(sp)
  13:servo.c       ****     timer_initpara.period            = 0;
  58              		.loc 1 13 5 is_stmt 1
  13:servo.c       ****     timer_initpara.period            = 0;
  59              		.loc 1 13 38 is_stmt 0
  60 004a 02CC     		sw	zero,24(sp)
  14:servo.c       ****     timer_initpara.repetitioncounter = 0;
  61              		.loc 1 14 5 is_stmt 1
  14:servo.c       ****     timer_initpara.repetitioncounter = 0;
  62              		.loc 1 14 38 is_stmt 0
  63 004c 231E0100 		sh	zero,28(sp)
  15:servo.c       ****     timer_init(TIMER0, &timer_initpara);
  64              		.loc 1 15 5 is_stmt 1
  15:servo.c       ****     timer_init(TIMER0, &timer_initpara);
  65              		.loc 1 15 38 is_stmt 0
  66 0050 230F0100 		sb	zero,30(sp)
  67              		.loc 1 16 5 is_stmt 1
  68 0054 97000000 		call	timer_init
  68      E7800000 
  69              	.LVL3:
  17:servo.c       **** 
  18:servo.c       ****     timer_oc_parameter_struct timer_ocinitpara;
  70              		.loc 1 18 5
  19:servo.c       ****     timer_ocinitpara.outputstate    = TIMER_CCX_ENABLE;
  71              		.loc 1 19 5
  20:servo.c       ****     timer_ocinitpara.outputnstate   = TIMER_CCXN_DISABLE;
  72              		.loc 1 20 5
  21:servo.c       ****     timer_ocinitpara.ocpolarity     = TIMER_OC_POLARITY_HIGH;
  73              		.loc 1 21 5
  22:servo.c       ****     timer_ocinitpara.ocnpolarity    = TIMER_OCN_POLARITY_HIGH;
  74              		.loc 1 22 5
  23:servo.c       ****     timer_ocinitpara.ocidlestate    = TIMER_OC_IDLE_STATE_LOW;
  75              		.loc 1 23 5
  24:servo.c       ****     timer_ocinitpara.ocnidlestate   = TIMER_OC_IDLE_STATE_LOW;
  76              		.loc 1 24 5
  19:servo.c       ****     timer_ocinitpara.outputnstate   = TIMER_CCXN_DISABLE;
GAS LISTING /var/folders/v8/5w7qrjpd37x60gtz_mwnrxpr0000gn/T//cc04p8iv.s 			page 3


  77              		.loc 1 19 37 is_stmt 0
  78 005c 8547     		li	a5,1
  25:servo.c       ****     timer_channel_output_config(TIMER0, TIMER_CH_0, &timer_ocinitpara);
  79              		.loc 1 25 5
  80 005e 5000     		addi	a2,sp,4
  81 0060 130504C0 		addi	a0,s0,-1024
  82 0064 8145     		li	a1,0
  19:servo.c       ****     timer_ocinitpara.outputnstate   = TIMER_CCXN_DISABLE;
  83              		.loc 1 19 37
  84 0066 3EC2     		sw	a5,4(sp)
  21:servo.c       ****     timer_ocinitpara.ocnpolarity    = TIMER_OCN_POLARITY_HIGH;
  85              		.loc 1 21 37
  86 0068 02C4     		sw	zero,8(sp)
  23:servo.c       ****     timer_ocinitpara.ocnidlestate   = TIMER_OC_IDLE_STATE_LOW;
  87              		.loc 1 23 37
  88 006a 02C6     		sw	zero,12(sp)
  89              		.loc 1 25 5 is_stmt 1
  90 006c 97000000 		call	timer_channel_output_config
  90      E7800000 
  91              	.LVL4:
  26:servo.c       **** 
  27:servo.c       ****     timer_autoreload_value_config(TIMER0, 19999);
  92              		.loc 1 27 5
  93 0074 9565     		li	a1,20480
  94 0076 130504C0 		addi	a0,s0,-1024
  95 007a 9385F5E1 		addi	a1,a1,-481
  96 007e 97000000 		call	timer_autoreload_value_config
  96      E7800000 
  97              	.LVL5:
  28:servo.c       **** 
  29:servo.c       ****     timer_channel_output_mode_config(TIMER0, TIMER_CH_0, TIMER_OC_MODE_PWM0);
  98              		.loc 1 29 5
  99 0086 130504C0 		addi	a0,s0,-1024
 100 008a 13060006 		li	a2,96
 101 008e 8145     		li	a1,0
 102 0090 97000000 		call	timer_channel_output_mode_config
 102      E7800000 
 103              	.LVL6:
  30:servo.c       ****     timer_channel_output_shadow_config(TIMER0, TIMER_CH_0, TIMER_OC_SHADOW_DISABLE);
 104              		.loc 1 30 5
 105 0098 130504C0 		addi	a0,s0,-1024
 106 009c 0146     		li	a2,0
 107 009e 8145     		li	a1,0
 108 00a0 97000000 		call	timer_channel_output_shadow_config
 108      E7800000 
 109              	.LVL7:
  31:servo.c       **** 
  32:servo.c       ****     timer_channel_output_pulse_value_config(TIMER0, TIMER_CH_0, 1000);
 110              		.loc 1 32 5
 111 00a8 1306803E 		li	a2,1000
 112 00ac 130504C0 		addi	a0,s0,-1024
 113 00b0 8145     		li	a1,0
 114 00b2 97000000 		call	timer_channel_output_pulse_value_config
 114      E7800000 
 115              	.LVL8:
  33:servo.c       **** 
  34:servo.c       ****     timer_primary_output_config(TIMER0, ENABLE);
GAS LISTING /var/folders/v8/5w7qrjpd37x60gtz_mwnrxpr0000gn/T//cc04p8iv.s 			page 4


 116              		.loc 1 34 5
 117 00ba 130504C0 		addi	a0,s0,-1024
 118 00be 8545     		li	a1,1
 119 00c0 97000000 		call	timer_primary_output_config
 119      E7800000 
 120              	.LVL9:
  35:servo.c       **** 
  36:servo.c       ****     timer_enable(TIMER0);
 121              		.loc 1 36 5
 122 00c8 130504C0 		addi	a0,s0,-1024
 123 00cc 97000000 		call	timer_enable
 123      E7800000 
 124              	.LVL10:
  37:servo.c       **** 
  38:servo.c       **** 
  39:servo.c       **** }
 125              		.loc 1 39 1 is_stmt 0
 126 00d4 B250     		lw	ra,44(sp)
 127              		.cfi_restore 1
 128 00d6 2254     		lw	s0,40(sp)
 129              		.cfi_restore 8
 130 00d8 4561     		addi	sp,sp,48
 131              	.LCFI1:
 132              		.cfi_def_cfa_offset 0
 133 00da 8280     		jr	ra
 134              		.cfi_endproc
 135              	.LFE2:
 137              		.section	.text.moveServo,"ax",@progbits
 138              		.align	1
 139              		.globl	moveServo
 141              	moveServo:
 142              	.LFB3:
  40:servo.c       **** 
  41:servo.c       **** 
  42:servo.c       **** /* void USART0_init(){
  43:servo.c       ****     rcu_periph_clock_enable(RCU_GPIOA);
  44:servo.c       ****     rcu_periph_clock_enable(RCU_USART0);
  45:servo.c       **** 
  46:servo.c       ****     gpio_init(GPIOA, GPIO_MODE_AF_PP, GPIO_OSPEED_50MHZ, GPIO_PIN_8);
  47:servo.c       **** 
  48:servo.c       ****     gpio_init(GPIOA, GPIO_MODE_IN_FLOATING, GPIO_OSPEED_50MHZ, GPIO_PIN_10);
  49:servo.c       **** 
  50:servo.c       ****     usart_deinit(USART0);
  51:servo.c       ****     usart_deinit(USART0);
  52:servo.c       ****     usart_baudrate_set(USART0, 9600);
  53:servo.c       ****     usart_parity_config(USART0, USART_PM_NONE);
  54:servo.c       ****     usart_word_length_set(USART0, USART_WL_8BIT);
  55:servo.c       ****     usart_stop_bit_set(USART0,USART_STB_2BIT);
  56:servo.c       ****     usart_hardware_flow_rts_config(USART0, USART_RTS_DISABLE);
  57:servo.c       ****     usart_hardware_flow_cts_config(USART0, USART_CTS_DISABLE);
  58:servo.c       ****     usart_enable(USART0);
  59:servo.c       ****     usart_transmit_config(USART0,USART_TRANSMIT_ENABLE);
  60:servo.c       ****     usart_receive_config(USART0,USART_RECEIVE_ENABLE);
  61:servo.c       **** 
  62:servo.c       ****     usart_interrupt_enable(USART0, USART_INT_RBNE);
  63:servo.c       **** } */
  64:servo.c       **** 
GAS LISTING /var/folders/v8/5w7qrjpd37x60gtz_mwnrxpr0000gn/T//cc04p8iv.s 			page 5


  65:servo.c       **** /* degrees 0 = 90grader, degress 1000 = 0 grader, degrees 2000 = -90 grader*/
  66:servo.c       **** 
  67:servo.c       **** void moveServo(int degrees){
 143              		.loc 1 67 28 is_stmt 1
 144              		.cfi_startproc
 145              	.LVL11:
  68:servo.c       ****     timer_channel_output_pulse_value_config(TIMER0, TIMER_CH_0, degrees+1000);
 146              		.loc 1 68 5
 147 0000 1306853E 		addi	a2,a0,1000
 148 0004 37350140 		li	a0,1073819648
 149              	.LVL12:
 150 0008 8145     		li	a1,0
 151 000a 130505C0 		addi	a0,a0,-1024
 152 000e 17030000 		tail	timer_channel_output_pulse_value_config
 152      67000300 
 153              	.LVL13:
 154              		.cfi_endproc
 155              	.LFE3:
 157              		.text
 158              	.Letext0:
 159              		.file 2 "/Users/gulda/Desktop/toolchain-gd32v-osx/compiler/riscv64-unknown-elf/include/machine/_de
 160              		.file 3 "/Users/gulda/Desktop/toolchain-gd32v-osx/compiler/riscv64-unknown-elf/include/sys/_stdint
 161              		.file 4 "../../firmware/GD32VF103_standard_peripheral/gd32vf103.h"
 162              		.file 5 "../../firmware/GD32VF103_standard_peripheral/Include/gd32vf103_rcu.h"
 163              		.file 6 "../../firmware/GD32VF103_standard_peripheral/Include/gd32vf103_timer.h"
 164              		.file 7 "../../firmware/GD32VF103_standard_peripheral/Include/gd32vf103_gpio.h"
 165              		.file 8 "../../firmware/GD32VF103_standard_peripheral/system_gd32vf103.h"
GAS LISTING /var/folders/v8/5w7qrjpd37x60gtz_mwnrxpr0000gn/T//cc04p8iv.s 			page 6


DEFINED SYMBOLS
                            *ABS*:0000000000000000 servo.c
/var/folders/v8/5w7qrjpd37x60gtz_mwnrxpr0000gn/T//cc04p8iv.s:13     .text.initServoA:0000000000000000 initServoA
/var/folders/v8/5w7qrjpd37x60gtz_mwnrxpr0000gn/T//cc04p8iv.s:17     .text.initServoA:0000000000000000 .L0 
/var/folders/v8/5w7qrjpd37x60gtz_mwnrxpr0000gn/T//cc04p8iv.s:18     .text.initServoA:0000000000000000 .L0 
/var/folders/v8/5w7qrjpd37x60gtz_mwnrxpr0000gn/T//cc04p8iv.s:19     .text.initServoA:0000000000000000 .L0 
/var/folders/v8/5w7qrjpd37x60gtz_mwnrxpr0000gn/T//cc04p8iv.s:20     .text.initServoA:0000000000000000 .L0 
/var/folders/v8/5w7qrjpd37x60gtz_mwnrxpr0000gn/T//cc04p8iv.s:22     .text.initServoA:0000000000000002 .L0 
/var/folders/v8/5w7qrjpd37x60gtz_mwnrxpr0000gn/T//cc04p8iv.s:24     .text.initServoA:0000000000000002 .L0 
/var/folders/v8/5w7qrjpd37x60gtz_mwnrxpr0000gn/T//cc04p8iv.s:26     .text.initServoA:0000000000000006 .L0 
/var/folders/v8/5w7qrjpd37x60gtz_mwnrxpr0000gn/T//cc04p8iv.s:28     .text.initServoA:000000000000000a .L0 
/var/folders/v8/5w7qrjpd37x60gtz_mwnrxpr0000gn/T//cc04p8iv.s:29     .text.initServoA:000000000000000a .L0 
/var/folders/v8/5w7qrjpd37x60gtz_mwnrxpr0000gn/T//cc04p8iv.s:31     .text.initServoA:000000000000000a .L0 
/var/folders/v8/5w7qrjpd37x60gtz_mwnrxpr0000gn/T//cc04p8iv.s:34     .text.initServoA:0000000000000012 .L0 
/var/folders/v8/5w7qrjpd37x60gtz_mwnrxpr0000gn/T//cc04p8iv.s:38     .text.initServoA:000000000000001e .L0 
/var/folders/v8/5w7qrjpd37x60gtz_mwnrxpr0000gn/T//cc04p8iv.s:46     .text.initServoA:0000000000000036 .L0 
/var/folders/v8/5w7qrjpd37x60gtz_mwnrxpr0000gn/T//cc04p8iv.s:47     .text.initServoA:0000000000000036 .L0 
/var/folders/v8/5w7qrjpd37x60gtz_mwnrxpr0000gn/T//cc04p8iv.s:48     .text.initServoA:0000000000000036 .L0 
/var/folders/v8/5w7qrjpd37x60gtz_mwnrxpr0000gn/T//cc04p8iv.s:49     .text.initServoA:0000000000000036 .L0 
/var/folders/v8/5w7qrjpd37x60gtz_mwnrxpr0000gn/T//cc04p8iv.s:50     .text.initServoA:0000000000000036 .L0 
/var/folders/v8/5w7qrjpd37x60gtz_mwnrxpr0000gn/T//cc04p8iv.s:54     .text.initServoA:0000000000000040 .L0 
/var/folders/v8/5w7qrjpd37x60gtz_mwnrxpr0000gn/T//cc04p8iv.s:57     .text.initServoA:0000000000000046 .L0 
/var/folders/v8/5w7qrjpd37x60gtz_mwnrxpr0000gn/T//cc04p8iv.s:59     .text.initServoA:000000000000004a .L0 
/var/folders/v8/5w7qrjpd37x60gtz_mwnrxpr0000gn/T//cc04p8iv.s:60     .text.initServoA:000000000000004a .L0 
/var/folders/v8/5w7qrjpd37x60gtz_mwnrxpr0000gn/T//cc04p8iv.s:62     .text.initServoA:000000000000004c .L0 
/var/folders/v8/5w7qrjpd37x60gtz_mwnrxpr0000gn/T//cc04p8iv.s:63     .text.initServoA:000000000000004c .L0 
/var/folders/v8/5w7qrjpd37x60gtz_mwnrxpr0000gn/T//cc04p8iv.s:65     .text.initServoA:0000000000000050 .L0 
/var/folders/v8/5w7qrjpd37x60gtz_mwnrxpr0000gn/T//cc04p8iv.s:66     .text.initServoA:0000000000000050 .L0 
/var/folders/v8/5w7qrjpd37x60gtz_mwnrxpr0000gn/T//cc04p8iv.s:68     .text.initServoA:0000000000000054 .L0 
/var/folders/v8/5w7qrjpd37x60gtz_mwnrxpr0000gn/T//cc04p8iv.s:71     .text.initServoA:000000000000005c .L0 
/var/folders/v8/5w7qrjpd37x60gtz_mwnrxpr0000gn/T//cc04p8iv.s:72     .text.initServoA:000000000000005c .L0 
/var/folders/v8/5w7qrjpd37x60gtz_mwnrxpr0000gn/T//cc04p8iv.s:73     .text.initServoA:000000000000005c .L0 
/var/folders/v8/5w7qrjpd37x60gtz_mwnrxpr0000gn/T//cc04p8iv.s:74     .text.initServoA:000000000000005c .L0 
/var/folders/v8/5w7qrjpd37x60gtz_mwnrxpr0000gn/T//cc04p8iv.s:75     .text.initServoA:000000000000005c .L0 
/var/folders/v8/5w7qrjpd37x60gtz_mwnrxpr0000gn/T//cc04p8iv.s:76     .text.initServoA:000000000000005c .L0 
/var/folders/v8/5w7qrjpd37x60gtz_mwnrxpr0000gn/T//cc04p8iv.s:77     .text.initServoA:000000000000005c .L0 
/var/folders/v8/5w7qrjpd37x60gtz_mwnrxpr0000gn/T//cc04p8iv.s:78     .text.initServoA:000000000000005c .L0 
/var/folders/v8/5w7qrjpd37x60gtz_mwnrxpr0000gn/T//cc04p8iv.s:80     .text.initServoA:000000000000005e .L0 
/var/folders/v8/5w7qrjpd37x60gtz_mwnrxpr0000gn/T//cc04p8iv.s:84     .text.initServoA:0000000000000066 .L0 
/var/folders/v8/5w7qrjpd37x60gtz_mwnrxpr0000gn/T//cc04p8iv.s:86     .text.initServoA:0000000000000068 .L0 
/var/folders/v8/5w7qrjpd37x60gtz_mwnrxpr0000gn/T//cc04p8iv.s:88     .text.initServoA:000000000000006a .L0 
/var/folders/v8/5w7qrjpd37x60gtz_mwnrxpr0000gn/T//cc04p8iv.s:90     .text.initServoA:000000000000006c .L0 
/var/folders/v8/5w7qrjpd37x60gtz_mwnrxpr0000gn/T//cc04p8iv.s:93     .text.initServoA:0000000000000074 .L0 
/var/folders/v8/5w7qrjpd37x60gtz_mwnrxpr0000gn/T//cc04p8iv.s:99     .text.initServoA:0000000000000086 .L0 
/var/folders/v8/5w7qrjpd37x60gtz_mwnrxpr0000gn/T//cc04p8iv.s:105    .text.initServoA:0000000000000098 .L0 
/var/folders/v8/5w7qrjpd37x60gtz_mwnrxpr0000gn/T//cc04p8iv.s:111    .text.initServoA:00000000000000a8 .L0 
/var/folders/v8/5w7qrjpd37x60gtz_mwnrxpr0000gn/T//cc04p8iv.s:117    .text.initServoA:00000000000000ba .L0 
/var/folders/v8/5w7qrjpd37x60gtz_mwnrxpr0000gn/T//cc04p8iv.s:122    .text.initServoA:00000000000000c8 .L0 
/var/folders/v8/5w7qrjpd37x60gtz_mwnrxpr0000gn/T//cc04p8iv.s:126    .text.initServoA:00000000000000d4 .L0 
/var/folders/v8/5w7qrjpd37x60gtz_mwnrxpr0000gn/T//cc04p8iv.s:127    .text.initServoA:00000000000000d6 .L0 
/var/folders/v8/5w7qrjpd37x60gtz_mwnrxpr0000gn/T//cc04p8iv.s:129    .text.initServoA:00000000000000d8 .L0 
/var/folders/v8/5w7qrjpd37x60gtz_mwnrxpr0000gn/T//cc04p8iv.s:132    .text.initServoA:00000000000000da .L0 
/var/folders/v8/5w7qrjpd37x60gtz_mwnrxpr0000gn/T//cc04p8iv.s:134    .text.initServoA:00000000000000dc .L0 
/var/folders/v8/5w7qrjpd37x60gtz_mwnrxpr0000gn/T//cc04p8iv.s:141    .text.moveServo:0000000000000000 moveServo
/var/folders/v8/5w7qrjpd37x60gtz_mwnrxpr0000gn/T//cc04p8iv.s:144    .text.moveServo:0000000000000000 .L0 
/var/folders/v8/5w7qrjpd37x60gtz_mwnrxpr0000gn/T//cc04p8iv.s:146    .text.moveServo:0000000000000000 .L0 
/var/folders/v8/5w7qrjpd37x60gtz_mwnrxpr0000gn/T//cc04p8iv.s:147    .text.moveServo:0000000000000000 .L0 
GAS LISTING /var/folders/v8/5w7qrjpd37x60gtz_mwnrxpr0000gn/T//cc04p8iv.s 			page 7


/var/folders/v8/5w7qrjpd37x60gtz_mwnrxpr0000gn/T//cc04p8iv.s:154    .text.moveServo:0000000000000016 .L0 
/var/folders/v8/5w7qrjpd37x60gtz_mwnrxpr0000gn/T//cc04p8iv.s:137    .text.initServoA:00000000000000dc .L0 
/var/folders/v8/5w7qrjpd37x60gtz_mwnrxpr0000gn/T//cc04p8iv.s:157    .text.moveServo:0000000000000016 .L0 
                     .debug_frame:0000000000000000 .L0 
/var/folders/v8/5w7qrjpd37x60gtz_mwnrxpr0000gn/T//cc04p8iv.s:894    .debug_abbrev:0000000000000000 .Ldebug_abbrev0
/var/folders/v8/5w7qrjpd37x60gtz_mwnrxpr0000gn/T//cc04p8iv.s:1424   .debug_str:00000000000002d6 .LASF83
/var/folders/v8/5w7qrjpd37x60gtz_mwnrxpr0000gn/T//cc04p8iv.s:1334   .debug_str:0000000000000080 .LASF84
/var/folders/v8/5w7qrjpd37x60gtz_mwnrxpr0000gn/T//cc04p8iv.s:1320   .debug_str:0000000000000000 .LASF85
/var/folders/v8/5w7qrjpd37x60gtz_mwnrxpr0000gn/T//cc04p8iv.s:1310   .debug_ranges:0000000000000000 .Ldebug_ranges0
/var/folders/v8/5w7qrjpd37x60gtz_mwnrxpr0000gn/T//cc04p8iv.s:1318   .debug_line:0000000000000000 .Ldebug_line0
/var/folders/v8/5w7qrjpd37x60gtz_mwnrxpr0000gn/T//cc04p8iv.s:1430   .debug_str:0000000000000363 .LASF0
/var/folders/v8/5w7qrjpd37x60gtz_mwnrxpr0000gn/T//cc04p8iv.s:1420   .debug_str:00000000000002b3 .LASF1
/var/folders/v8/5w7qrjpd37x60gtz_mwnrxpr0000gn/T//cc04p8iv.s:1494   .debug_str:0000000000000507 .LASF4
/var/folders/v8/5w7qrjpd37x60gtz_mwnrxpr0000gn/T//cc04p8iv.s:1408   .debug_str:0000000000000267 .LASF2
/var/folders/v8/5w7qrjpd37x60gtz_mwnrxpr0000gn/T//cc04p8iv.s:1382   .debug_str:0000000000000195 .LASF3
/var/folders/v8/5w7qrjpd37x60gtz_mwnrxpr0000gn/T//cc04p8iv.s:1342   .debug_str:00000000000000a9 .LASF5
/var/folders/v8/5w7qrjpd37x60gtz_mwnrxpr0000gn/T//cc04p8iv.s:1440   .debug_str:000000000000039c .LASF6
/var/folders/v8/5w7qrjpd37x60gtz_mwnrxpr0000gn/T//cc04p8iv.s:1370   .debug_str:000000000000015e .LASF7
/var/folders/v8/5w7qrjpd37x60gtz_mwnrxpr0000gn/T//cc04p8iv.s:1338   .debug_str:0000000000000096 .LASF8
/var/folders/v8/5w7qrjpd37x60gtz_mwnrxpr0000gn/T//cc04p8iv.s:1458   .debug_str:0000000000000414 .LASF9
/var/folders/v8/5w7qrjpd37x60gtz_mwnrxpr0000gn/T//cc04p8iv.s:1336   .debug_str:0000000000000088 .LASF10
/var/folders/v8/5w7qrjpd37x60gtz_mwnrxpr0000gn/T//cc04p8iv.s:1422   .debug_str:00000000000002bf .LASF11
/var/folders/v8/5w7qrjpd37x60gtz_mwnrxpr0000gn/T//cc04p8iv.s:1352   .debug_str:0000000000000106 .LASF12
/var/folders/v8/5w7qrjpd37x60gtz_mwnrxpr0000gn/T//cc04p8iv.s:1432   .debug_str:0000000000000370 .LASF13
/var/folders/v8/5w7qrjpd37x60gtz_mwnrxpr0000gn/T//cc04p8iv.s:1426   .debug_str:0000000000000350 .LASF14
/var/folders/v8/5w7qrjpd37x60gtz_mwnrxpr0000gn/T//cc04p8iv.s:1450   .debug_str:00000000000003ec .LASF86
/var/folders/v8/5w7qrjpd37x60gtz_mwnrxpr0000gn/T//cc04p8iv.s:1358   .debug_str:0000000000000123 .LASF15
/var/folders/v8/5w7qrjpd37x60gtz_mwnrxpr0000gn/T//cc04p8iv.s:1490   .debug_str:00000000000004df .LASF16
/var/folders/v8/5w7qrjpd37x60gtz_mwnrxpr0000gn/T//cc04p8iv.s:1354   .debug_str:000000000000010e .LASF17
/var/folders/v8/5w7qrjpd37x60gtz_mwnrxpr0000gn/T//cc04p8iv.s:1452   .debug_str:00000000000003fc .LASF18
/var/folders/v8/5w7qrjpd37x60gtz_mwnrxpr0000gn/T//cc04p8iv.s:1488   .debug_str:00000000000004d7 .LASF19
/var/folders/v8/5w7qrjpd37x60gtz_mwnrxpr0000gn/T//cc04p8iv.s:1484   .debug_str:00000000000004c2 .LASF20
/var/folders/v8/5w7qrjpd37x60gtz_mwnrxpr0000gn/T//cc04p8iv.s:1472   .debug_str:000000000000046b .LASF21
/var/folders/v8/5w7qrjpd37x60gtz_mwnrxpr0000gn/T//cc04p8iv.s:1388   .debug_str:00000000000001d2 .LASF22
/var/folders/v8/5w7qrjpd37x60gtz_mwnrxpr0000gn/T//cc04p8iv.s:1390   .debug_str:00000000000001dd .LASF23
/var/folders/v8/5w7qrjpd37x60gtz_mwnrxpr0000gn/T//cc04p8iv.s:1392   .debug_str:00000000000001e8 .LASF24
/var/folders/v8/5w7qrjpd37x60gtz_mwnrxpr0000gn/T//cc04p8iv.s:1394   .debug_str:00000000000001f3 .LASF25
/var/folders/v8/5w7qrjpd37x60gtz_mwnrxpr0000gn/T//cc04p8iv.s:1396   .debug_str:00000000000001fe .LASF26
/var/folders/v8/5w7qrjpd37x60gtz_mwnrxpr0000gn/T//cc04p8iv.s:1398   .debug_str:0000000000000209 .LASF27
/var/folders/v8/5w7qrjpd37x60gtz_mwnrxpr0000gn/T//cc04p8iv.s:1366   .debug_str:0000000000000149 .LASF28
/var/folders/v8/5w7qrjpd37x60gtz_mwnrxpr0000gn/T//cc04p8iv.s:1374   .debug_str:0000000000000170 .LASF29
/var/folders/v8/5w7qrjpd37x60gtz_mwnrxpr0000gn/T//cc04p8iv.s:1376   .debug_str:0000000000000179 .LASF30
/var/folders/v8/5w7qrjpd37x60gtz_mwnrxpr0000gn/T//cc04p8iv.s:1468   .debug_str:0000000000000455 .LASF31
/var/folders/v8/5w7qrjpd37x60gtz_mwnrxpr0000gn/T//cc04p8iv.s:1470   .debug_str:0000000000000460 .LASF32
/var/folders/v8/5w7qrjpd37x60gtz_mwnrxpr0000gn/T//cc04p8iv.s:1474   .debug_str:0000000000000475 .LASF33
/var/folders/v8/5w7qrjpd37x60gtz_mwnrxpr0000gn/T//cc04p8iv.s:1476   .debug_str:000000000000047f .LASF34
/var/folders/v8/5w7qrjpd37x60gtz_mwnrxpr0000gn/T//cc04p8iv.s:1444   .debug_str:00000000000003c9 .LASF35
/var/folders/v8/5w7qrjpd37x60gtz_mwnrxpr0000gn/T//cc04p8iv.s:1446   .debug_str:00000000000003d2 .LASF36
/var/folders/v8/5w7qrjpd37x60gtz_mwnrxpr0000gn/T//cc04p8iv.s:1362   .debug_str:0000000000000137 .LASF37
/var/folders/v8/5w7qrjpd37x60gtz_mwnrxpr0000gn/T//cc04p8iv.s:1364   .debug_str:0000000000000140 .LASF38
/var/folders/v8/5w7qrjpd37x60gtz_mwnrxpr0000gn/T//cc04p8iv.s:1418   .debug_str:00000000000002aa .LASF39
/var/folders/v8/5w7qrjpd37x60gtz_mwnrxpr0000gn/T//cc04p8iv.s:1438   .debug_str:0000000000000394 .LASF40
/var/folders/v8/5w7qrjpd37x60gtz_mwnrxpr0000gn/T//cc04p8iv.s:1454   .debug_str:0000000000000405 .LASF41
/var/folders/v8/5w7qrjpd37x60gtz_mwnrxpr0000gn/T//cc04p8iv.s:1340   .debug_str:00000000000000a1 .LASF42
/var/folders/v8/5w7qrjpd37x60gtz_mwnrxpr0000gn/T//cc04p8iv.s:1456   .debug_str:000000000000040d .LASF43
/var/folders/v8/5w7qrjpd37x60gtz_mwnrxpr0000gn/T//cc04p8iv.s:1324   .debug_str:000000000000004e .LASF44
/var/folders/v8/5w7qrjpd37x60gtz_mwnrxpr0000gn/T//cc04p8iv.s:1326   .debug_str:0000000000000058 .LASF45
GAS LISTING /var/folders/v8/5w7qrjpd37x60gtz_mwnrxpr0000gn/T//cc04p8iv.s 			page 8


/var/folders/v8/5w7qrjpd37x60gtz_mwnrxpr0000gn/T//cc04p8iv.s:1328   .debug_str:0000000000000062 .LASF46
/var/folders/v8/5w7qrjpd37x60gtz_mwnrxpr0000gn/T//cc04p8iv.s:1330   .debug_str:000000000000006c .LASF47
/var/folders/v8/5w7qrjpd37x60gtz_mwnrxpr0000gn/T//cc04p8iv.s:1332   .debug_str:0000000000000076 .LASF48
/var/folders/v8/5w7qrjpd37x60gtz_mwnrxpr0000gn/T//cc04p8iv.s:1412   .debug_str:000000000000028d .LASF49
/var/folders/v8/5w7qrjpd37x60gtz_mwnrxpr0000gn/T//cc04p8iv.s:1414   .debug_str:0000000000000296 .LASF50
/var/folders/v8/5w7qrjpd37x60gtz_mwnrxpr0000gn/T//cc04p8iv.s:1386   .debug_str:00000000000001c7 .LASF51
/var/folders/v8/5w7qrjpd37x60gtz_mwnrxpr0000gn/T//cc04p8iv.s:1372   .debug_str:0000000000000167 .LASF52
/var/folders/v8/5w7qrjpd37x60gtz_mwnrxpr0000gn/T//cc04p8iv.s:1466   .debug_str:000000000000044a .LASF53
/var/folders/v8/5w7qrjpd37x60gtz_mwnrxpr0000gn/T//cc04p8iv.s:1436   .debug_str:000000000000038a .LASF54
/var/folders/v8/5w7qrjpd37x60gtz_mwnrxpr0000gn/T//cc04p8iv.s:1378   .debug_str:0000000000000182 .LASF55
/var/folders/v8/5w7qrjpd37x60gtz_mwnrxpr0000gn/T//cc04p8iv.s:1448   .debug_str:00000000000003db .LASF56
/var/folders/v8/5w7qrjpd37x60gtz_mwnrxpr0000gn/T//cc04p8iv.s:1380   .debug_str:000000000000018e .LASF57
/var/folders/v8/5w7qrjpd37x60gtz_mwnrxpr0000gn/T//cc04p8iv.s:1346   .debug_str:00000000000000cb .LASF58
/var/folders/v8/5w7qrjpd37x60gtz_mwnrxpr0000gn/T//cc04p8iv.s:1478   .debug_str:0000000000000489 .LASF59
/var/folders/v8/5w7qrjpd37x60gtz_mwnrxpr0000gn/T//cc04p8iv.s:1344   .debug_str:00000000000000b4 .LASF60
/var/folders/v8/5w7qrjpd37x60gtz_mwnrxpr0000gn/T//cc04p8iv.s:1360   .debug_str:000000000000012b .LASF61
/var/folders/v8/5w7qrjpd37x60gtz_mwnrxpr0000gn/T//cc04p8iv.s:1464   .debug_str:000000000000043d .LASF62
/var/folders/v8/5w7qrjpd37x60gtz_mwnrxpr0000gn/T//cc04p8iv.s:1480   .debug_str:000000000000049b .LASF63
/var/folders/v8/5w7qrjpd37x60gtz_mwnrxpr0000gn/T//cc04p8iv.s:1486   .debug_str:00000000000004cb .LASF64
/var/folders/v8/5w7qrjpd37x60gtz_mwnrxpr0000gn/T//cc04p8iv.s:1356   .debug_str:0000000000000117 .LASF65
/var/folders/v8/5w7qrjpd37x60gtz_mwnrxpr0000gn/T//cc04p8iv.s:1460   .debug_str:0000000000000426 .LASF66
/var/folders/v8/5w7qrjpd37x60gtz_mwnrxpr0000gn/T//cc04p8iv.s:1442   .debug_str:00000000000003af .LASF67
/var/folders/v8/5w7qrjpd37x60gtz_mwnrxpr0000gn/T//cc04p8iv.s:1402   .debug_str:0000000000000230 .LASF68
/var/folders/v8/5w7qrjpd37x60gtz_mwnrxpr0000gn/T//cc04p8iv.s:1428   .debug_str:0000000000000359 .LASF69
/var/folders/v8/5w7qrjpd37x60gtz_mwnrxpr0000gn/T//cc04p8iv.s:142    .text.moveServo:0000000000000000 .LFB3
/var/folders/v8/5w7qrjpd37x60gtz_mwnrxpr0000gn/T//cc04p8iv.s:155    .text.moveServo:0000000000000016 .LFE3
/var/folders/v8/5w7qrjpd37x60gtz_mwnrxpr0000gn/T//cc04p8iv.s:1404   .debug_str:000000000000023c .LASF87
/var/folders/v8/5w7qrjpd37x60gtz_mwnrxpr0000gn/T//cc04p8iv.s:1257   .debug_loc:0000000000000000 .LLST1
/var/folders/v8/5w7qrjpd37x60gtz_mwnrxpr0000gn/T//cc04p8iv.s:153    .text.moveServo:0000000000000016 .LVL13
/var/folders/v8/5w7qrjpd37x60gtz_mwnrxpr0000gn/T//cc04p8iv.s:1416   .debug_str:000000000000029f .LASF70
/var/folders/v8/5w7qrjpd37x60gtz_mwnrxpr0000gn/T//cc04p8iv.s:14     .text.initServoA:0000000000000000 .LFB2
/var/folders/v8/5w7qrjpd37x60gtz_mwnrxpr0000gn/T//cc04p8iv.s:135    .text.initServoA:00000000000000dc .LFE2
/var/folders/v8/5w7qrjpd37x60gtz_mwnrxpr0000gn/T//cc04p8iv.s:1277   .debug_loc:000000000000002f .LLST0
/var/folders/v8/5w7qrjpd37x60gtz_mwnrxpr0000gn/T//cc04p8iv.s:1350   .debug_str:00000000000000f7 .LASF71
/var/folders/v8/5w7qrjpd37x60gtz_mwnrxpr0000gn/T//cc04p8iv.s:1434   .debug_str:0000000000000379 .LASF72
/var/folders/v8/5w7qrjpd37x60gtz_mwnrxpr0000gn/T//cc04p8iv.s:32     .text.initServoA:0000000000000012 .LVL0
/var/folders/v8/5w7qrjpd37x60gtz_mwnrxpr0000gn/T//cc04p8iv.s:36     .text.initServoA:000000000000001e .LVL1
/var/folders/v8/5w7qrjpd37x60gtz_mwnrxpr0000gn/T//cc04p8iv.s:44     .text.initServoA:0000000000000036 .LVL2
/var/folders/v8/5w7qrjpd37x60gtz_mwnrxpr0000gn/T//cc04p8iv.s:69     .text.initServoA:000000000000005c .LVL3
/var/folders/v8/5w7qrjpd37x60gtz_mwnrxpr0000gn/T//cc04p8iv.s:91     .text.initServoA:0000000000000074 .LVL4
/var/folders/v8/5w7qrjpd37x60gtz_mwnrxpr0000gn/T//cc04p8iv.s:97     .text.initServoA:0000000000000086 .LVL5
/var/folders/v8/5w7qrjpd37x60gtz_mwnrxpr0000gn/T//cc04p8iv.s:103    .text.initServoA:0000000000000098 .LVL6
/var/folders/v8/5w7qrjpd37x60gtz_mwnrxpr0000gn/T//cc04p8iv.s:109    .text.initServoA:00000000000000a8 .LVL7
/var/folders/v8/5w7qrjpd37x60gtz_mwnrxpr0000gn/T//cc04p8iv.s:115    .text.initServoA:00000000000000ba .LVL8
/var/folders/v8/5w7qrjpd37x60gtz_mwnrxpr0000gn/T//cc04p8iv.s:120    .text.initServoA:00000000000000c8 .LVL9
/var/folders/v8/5w7qrjpd37x60gtz_mwnrxpr0000gn/T//cc04p8iv.s:124    .text.initServoA:00000000000000d4 .LVL10
/var/folders/v8/5w7qrjpd37x60gtz_mwnrxpr0000gn/T//cc04p8iv.s:1384   .debug_str:000000000000019f .LASF73
/var/folders/v8/5w7qrjpd37x60gtz_mwnrxpr0000gn/T//cc04p8iv.s:1410   .debug_str:0000000000000275 .LASF74
/var/folders/v8/5w7qrjpd37x60gtz_mwnrxpr0000gn/T//cc04p8iv.s:1462   .debug_str:0000000000000433 .LASF75
/var/folders/v8/5w7qrjpd37x60gtz_mwnrxpr0000gn/T//cc04p8iv.s:1368   .debug_str:0000000000000153 .LASF76
/var/folders/v8/5w7qrjpd37x60gtz_mwnrxpr0000gn/T//cc04p8iv.s:1482   .debug_str:00000000000004a6 .LASF77
/var/folders/v8/5w7qrjpd37x60gtz_mwnrxpr0000gn/T//cc04p8iv.s:1348   .debug_str:00000000000000d9 .LASF78
/var/folders/v8/5w7qrjpd37x60gtz_mwnrxpr0000gn/T//cc04p8iv.s:1492   .debug_str:00000000000004e6 .LASF79
/var/folders/v8/5w7qrjpd37x60gtz_mwnrxpr0000gn/T//cc04p8iv.s:1406   .debug_str:0000000000000244 .LASF80
/var/folders/v8/5w7qrjpd37x60gtz_mwnrxpr0000gn/T//cc04p8iv.s:1400   .debug_str:0000000000000214 .LASF81
/var/folders/v8/5w7qrjpd37x60gtz_mwnrxpr0000gn/T//cc04p8iv.s:1322   .debug_str:0000000000000041 .LASF82
/var/folders/v8/5w7qrjpd37x60gtz_mwnrxpr0000gn/T//cc04p8iv.s:145    .text.moveServo:0000000000000000 .LVL11
GAS LISTING /var/folders/v8/5w7qrjpd37x60gtz_mwnrxpr0000gn/T//cc04p8iv.s 			page 9


/var/folders/v8/5w7qrjpd37x60gtz_mwnrxpr0000gn/T//cc04p8iv.s:149    .text.moveServo:0000000000000008 .LVL12
/var/folders/v8/5w7qrjpd37x60gtz_mwnrxpr0000gn/T//cc04p8iv.s:21     .text.initServoA:0000000000000002 .LCFI0
/var/folders/v8/5w7qrjpd37x60gtz_mwnrxpr0000gn/T//cc04p8iv.s:131    .text.initServoA:00000000000000da .LCFI1
/var/folders/v8/5w7qrjpd37x60gtz_mwnrxpr0000gn/T//cc04p8iv.s:167    .debug_info:0000000000000000 .Ldebug_info0

UNDEFINED SYMBOLS
rcu_periph_clock_enable
gpio_init
timer_init
timer_channel_output_config
timer_autoreload_value_config
timer_channel_output_mode_config
timer_channel_output_shadow_config
timer_channel_output_pulse_value_config
timer_primary_output_config
timer_enable
